
 Start         Length     Name                   Class
 0000:00000000 000100000H Code                   CODE
 0001:00000000 000008000H Sram                   
 0001:00000000 000000800H seg002                 CODE
 0000:00000000 000080000H SRAM                   DATA
 0000:00000000 000000054H TMR2                   IOPORTS
 0000:00000000 000000050H TMR3                   IOPORTS
 0000:00000000 000000050H TMR4                   IOPORTS
 0000:00000000 000000054H TMR5                   IOPORTS
 0000:00000000 000000030H TMR6                   IOPORTS
 0000:00000000 000000030H TMR7                   IOPORTS
 0000:00000000 00000003CH TMR12                  IOPORTS
 0000:00000000 000000038H TMR13                  IOPORTS
 0000:00000000 000000038H TMR14                  IOPORTS
 0000:00000000 0000000A0H RTC                    IOPORTS
 0000:00000000 00000000CH WWDT                   IOPORTS
 0000:00000000 000000010H IWDT                   IOPORTS
 0000:00000000 000000024H I2S2ext                IOPORTS
 0000:00000000 000000024H SPI2                   IOPORTS
 0000:00000000 000000024H SPI3                   IOPORTS
 0000:00000000 000000024H I2S3ext                IOPORTS
 0000:00000000 00000001CH USART2                 IOPORTS
 0000:00000000 00000001CH USART3                 IOPORTS
 0000:00000000 000000018H UART4                  IOPORTS
 0000:00000000 000000018H UART5                  IOPORTS
 0000:00000000 000000024H I2C1                   IOPORTS
 0000:00000000 000000024H I2C2                   IOPORTS
 0000:00000000 000000024H I2C3                   IOPORTS
 0000:00000000 000000320H CAN1                   IOPORTS
 0000:00000000 000000320H CAN2                   IOPORTS
 0000:00000000 000000008H PMU                    IOPORTS
 0000:00000000 000000038H DAC                    IOPORTS
 0000:00000000 000000050H TMR1                   IOPORTS
 0000:00000000 000000050H TMR8                   IOPORTS
 0000:00000000 00000001CH USART1                 IOPORTS
 0000:00000000 00000001CH USART6                 IOPORTS
 0000:00000000 000000050H ADC1                   IOPORTS
 0000:00000000 000000050H ADC2                   IOPORTS
 0000:00000000 000000050H ADC3                   IOPORTS
 0000:00000000 00000000CH ADC_CCTRL              IOPORTS
 0000:00000000 000000084H SDIO                   IOPORTS
 0000:00000000 000000024H SPI1                   IOPORTS
 0000:00000000 000000024H SYSCFG                 IOPORTS
 0000:00000000 000000018H EINT                   IOPORTS
 0000:00000000 00000003CH TMR9                   IOPORTS
 0000:00000000 000000038H TMR10                  IOPORTS
 0000:00000000 000000054H TMR11                  IOPORTS
 0000:00000000 000000028H GPIOA                  IOPORTS
 0000:00000000 000000028H GPIOB                  IOPORTS
 0000:00000000 000000028H GPIOC                  IOPORTS
 0000:00000000 000000028H GPIOD                  IOPORTS
 0000:00000000 000000028H GPIOE                  IOPORTS
 0000:00000000 000000028H GPIOF                  IOPORTS
 0000:00000000 000000028H GPIOG                  IOPORTS
 0000:00000000 000000028H GPIOH                  IOPORTS
 0000:00000000 000000028H GPIOI                  IOPORTS
 0000:00000000 00000000CH CRC                    IOPORTS
 0000:00000000 000000088H RCM                    IOPORTS
 0000:00000000 000000018H FMC                    IOPORTS
 0000:00000000 0000000D0H DMA1                   IOPORTS
 0000:00000000 0000000D0H DMA2                   IOPORTS
 0000:00000000 000000060H Ethernet_MAC           IOPORTS
 0000:00000000 0000000C8H Ethernet_MMC           IOPORTS
 0000:00000000 000000030H Ethernet_PTP           IOPORTS
 0000:00000000 000000058H Ethernet_DMA           IOPORTS
 0000:00000000 000000130H OTG_HS1_GLOBAL         IOPORTS
 0000:00000000 000000040H OTG_HS2                IOPORTS
 0000:00000000 000000278H OTG_HS1_HOST           IOPORTS
 0000:00000000 0000003ECH OTG_HS1_DEVICE         IOPORTS
 0000:00000000 000000004H OTG_HS1_PWRCLK         IOPORTS
 0000:00000000 000000110H OTG_FS_GLOBAL          IOPORTS
 0000:00000000 0000001F4H OTG_FS_HOST            IOPORTS
 0000:00000000 000000374H OTG_FS_DEVICE          IOPORTS
 0000:00000000 000000004H OTG_FS_PWRCLK          IOPORTS
 0000:00000000 00000002CH DCI                    IOPORTS
 0000:00000000 00000000CH RNG                    IOPORTS
 0000:00000000 000000094H SM3                    IOPORTS
 0000:00000000 00000004CH SM4                    IOPORTS
 0000:00000000 00000006CH BN                     IOPORTS
 0000:00000000 000000408H DMC_SMC                IOPORTS
 0000:00000000 000042000H PPB                    DATA
 0000:00000000 000000010H DBGMCU                 IOPORTS
 0000:00000000 0000BDFF0H PPB                    DATA


  Address         Publics by Value

 0000:08000000       SP_main
 0000:08000188       sub_8000188
 0000:080001A6       loc_80001A6
 0000:080001AA       sub_80001AA
 0000:080001D0       sub_80001D0
 0000:08000206       veda_ctrl_dispatch_service_fields
 0000:08000236       loc_8000236
 0000:0800023A       loc_800023A
 0000:0800023C       loc_800023C
 0000:08000242       loc_8000242
 0000:08000248       loc_8000248
 0000:0800024E       loc_800024E
 0000:08000254       loc_8000254
 0000:0800025A       loc_800025A
 0000:08000260       loc_8000260
 0000:08000268       loc_8000268
 0000:08000278       loc_8000278
 0000:08000292       loc_8000292
 0000:08000294       loc_8000294
 0000:0800029E       loc_800029E
 0000:080002AA       loc_80002AA
 0000:080002BA       loc_80002BA
 0000:080002BE       loc_80002BE
 0000:080002C0       locret_80002C0
 0000:080002C2       veda_service_consume_rx_command_buffer
 0000:08000304       loc_8000304
 0000:08000368       loc_8000368
 0000:080003E2       loc_80003E2
 0000:0800040C       loc_800040C
 0000:08000444       loc_8000444
 0000:08000458       loc_8000458
 0000:0800049C       loc_800049C
 0000:0800049E       loc_800049E
 0000:080004B0       loc_80004B0
 0000:080004B2       loc_80004B2
 0000:080004E2       loc_80004E2
 0000:080004E4       loc_80004E4
 0000:08000514       loc_8000514
 0000:08000516       loc_8000516
 0000:08000528       loc_8000528
 0000:0800052A       loc_800052A
 0000:0800053C       loc_800053C
 0000:0800053E       loc_800053E
 0000:08000540       loc_8000540
 0000:0800056C       loc_800056C
 0000:0800057E       loc_800057E
 0000:08000594       loc_8000594
 0000:080005B8       loc_80005B8
 0000:080005CC       loc_80005CC
 0000:080005D8       loc_80005D8
 0000:080005FC       loc_80005FC
 0000:08000614       loc_8000614
 0000:08000620       loc_8000620
 0000:08000648       loc_8000648
 0000:0800065C       loc_800065C
 0000:0800066A       loc_800066A
 0000:080006BC       loc_80006BC
 0000:080006BE       loc_80006BE
 0000:080006DA       loc_80006DA
 0000:08000704       loc_8000704
 0000:08000708       loc_8000708
 0000:08000728       loc_8000728
 0000:08000730       loc_8000730
 0000:08000758       loc_8000758
 0000:0800077C       loc_800077C
 0000:080007C2       loc_80007C2
 0000:08000802       loc_8000802
 0000:08000810       loc_8000810
 0000:08000812       locret_8000812
 0000:08000814       sub_8000814
 0000:08000818       veda_ctrl_gate_service_session
 0000:0800084E       loc_800084E
 0000:0800089A       loc_800089A
 0000:080008B2       loc_80008B2
 0000:080008B8       locret_80008B8
 0000:080008BA       veda_ctrl_begin_service_rx_transfer
 0000:080008D6       loc_80008D6
 0000:0800090C       loc_800090C
 0000:08000912       loc_8000912
 0000:08000926       loc_8000926
 0000:0800095C       loc_800095C
 0000:08000960       locret_8000960
 0000:08000964       dword_8000964
 0000:08000968       veda_service_build_tx_reply_or_transfer
 0000:0800098E       loc_800098E
 0000:080009DE       loc_80009DE
 0000:080009F2       loc_80009F2
 0000:080009FA       loc_80009FA
 0000:08000A22       loc_8000A22
 0000:08000A34       loc_8000A34
 0000:08000A48       loc_8000A48
 0000:08000A5C       loc_8000A5C
 0000:08000A64       loc_8000A64
 0000:08000AB6       loc_8000AB6
 0000:08000ACA       loc_8000ACA
 0000:08000AD2       loc_8000AD2
 0000:08000AFA       loc_8000AFA
 0000:08000B0E       loc_8000B0E
 0000:08000B20       loc_8000B20
 0000:08000B30       loc_8000B30
 0000:08000B36       loc_8000B36
 0000:08000B5C       loc_8000B5C
 0000:08000B70       loc_8000B70
 0000:08000B82       loc_8000B82
 0000:08000B94       loc_8000B94
 0000:08000B9A       loc_8000B9A
 0000:08000BC0       loc_8000BC0
 0000:08000BD0       loc_8000BD0
 0000:08000BE6       loc_8000BE6
 0000:08000BF6       loc_8000BF6
 0000:08000BFC       loc_8000BFC
 0000:08000C22       loc_8000C22
 0000:08000C32       loc_8000C32
 0000:08000C44       loc_8000C44
 0000:08000C58       loc_8000C58
 0000:08000C5E       loc_8000C5E
 0000:08000C8A       loc_8000C8A
 0000:08000C9C       loc_8000C9C
 0000:08000CA6       loc_8000CA6
 0000:08000CBC       loc_8000CBC
 0000:08000CC4       loc_8000CC4
 0000:08000CE4       loc_8000CE4
 0000:08000CF2       loc_8000CF2
 0000:08000D02       loc_8000D02
 0000:08000D08       loc_8000D08
 0000:08000D48       loc_8000D48
 0000:08000D9C       loc_8000D9C
 0000:08000DAC       loc_8000DAC
 0000:08000DDC       loc_8000DDC
 0000:08000DF0       loc_8000DF0
 0000:08000E18       locret_8000E18
 0000:08000E1C       off_8000E1C
 0000:08000E20       off_8000E20
 0000:08000E24       off_8000E24
 0000:08000E28       off_8000E28
 0000:08000E2C       off_8000E2C
 0000:08000E30       off_8000E30
 0000:08000E34       off_8000E34
 0000:08000E38       off_8000E38
 0000:08000E3C       off_8000E3C
 0000:08000E40       off_8000E40
 0000:08000E44       veda_ctrl_prepare_status_reply
 0000:08000E5A       loc_8000E5A
 0000:08000EA0       loc_8000EA0
 0000:08000ED8       loc_8000ED8
 0000:08000F00       loc_8000F00
 0000:08000F24       loc_8000F24
 0000:08000F48       loc_8000F48
 0000:08000F6C       loc_8000F6C
 0000:08000F90       loc_8000F90
 0000:08000F9E       loc_8000F9E
 0000:08000FBE       loc_8000FBE
 0000:08000FC0       loc_8000FC0
 0000:08000FEA       loc_8000FEA
 0000:0800101A       loc_800101A
 0000:0800101C       loc_800101C
 0000:08001028       off_8001028
 0000:0800102C       veda_ctrl_toggle_service_mode_0E
 0000:08001062       loc_8001062
 0000:0800108E       locret_800108E
 0000:08001090       veda_ctrl_send_current_service_state
 0000:0800109C       off_800109C
 0000:080010A0       off_80010A0
 0000:080010A4       off_80010A4
 0000:080010A8       off_80010A8
 0000:080010AC       off_80010AC
 0000:080010B0       off_80010B0
 0000:080010B4       off_80010B4
 0000:080010B8       off_80010B8
 0000:080010BC       veda_ctrl_abort_and_reset_service
 0000:080010E4       loc_80010E4
 0000:0800111C       locret_800111C
 0000:0800111E       veda_ctrl_finish_reboot_or_return_to_service
 0000:08001150       loc_8001150
 0000:0800117C       locret_800117C
 0000:0800117E       veda_backend_get_fixed36_ctrl_buf
 0000:08001186       veda_backend_build_string_reply_buf
 0000:080011A6       loc_80011A6
 0000:080011A8       locret_80011A8
 0000:080011AC       off_80011AC
 0000:080011B0       off_80011B0
 0000:080011B4       off_80011B4
 0000:080011B8       dword_80011B8
 0000:080011BC       off_80011BC
 0000:080011C0       off_80011C0
 0000:080011C4       off_80011C4
 0000:080011C8       off_80011C8
 0000:080011CC       off_80011CC
 0000:080011D0       off_80011D0
 0000:080011D4       off_80011D4
 0000:080011D8       off_80011D8
 0000:080011DC       off_80011DC
 0000:080011E0       off_80011E0
 0000:080011E4       off_80011E4
 0000:080011E8       veda_backend_call_all_slot04
 0000:080011F0       loc_80011F0
 0000:08001206       loc_8001206
 0000:08001208       loc_8001208
 0000:08001210       veda_backend_dispatch_slot08
 0000:08001218       loc_8001218
 0000:0800122E       loc_800122E
 0000:08001230       loc_8001230
 0000:08001238       veda_backend_open_or_notify
 0000:08001252       loc_8001252
 0000:08001254       loc_8001254
 0000:0800125E       loc_800125E
 0000:0800127C       loc_800127C
 0000:08001280       loc_8001280
 0000:08001282       locret_8001282
 0000:08001284       veda_backend_write_or_commit
 0000:080012A0       loc_80012A0
 0000:080012A2       loc_80012A2
 0000:080012AC       loc_80012AC
 0000:080012CC       loc_80012CC
 0000:080012D0       loc_80012D0
 0000:080012D2       locret_80012D2
 0000:080012D4       veda_backend_get_tx_buffer
 0000:08001302       loc_8001302
 0000:08001306       loc_8001306
 0000:08001308       locret_8001308
 0000:0800130A       veda_backend_fill_reply_words_from_slot1c
 0000:08001340       loc_8001340
 0000:08001362       loc_8001362
 0000:08001366       loc_8001366
 0000:08001368       locret_8001368
 0000:0800136A       veda_backend_dispatch_slot18_select
 0000:08001374       loc_8001374
 0000:08001376       loc_8001376
 0000:08001390       loc_8001390
 0000:08001392       locret_8001392
 0000:08001394       off_8001394
 0000:08001398       off_8001398
 0000:0800139C       dmr_ctrl_dispatch_header_type0
 0000:080013C0       loc_80013C0
 0000:080013C6       loc_80013C6
 0000:080013CC       loc_80013CC
 0000:080013D2       loc_80013D2
 0000:080013D8       loc_80013D8
 0000:080013DE       loc_80013DE
 0000:080013E4       loc_80013E4
 0000:080013EA       loc_80013EA
 0000:080013EE       loc_80013EE
 0000:080013F4       dmr_radio_handle_header_type1_state_gate
 0000:0800142A       loc_800142A
 0000:08001432       loc_8001432
 0000:08001434       loc_8001434
 0000:0800143C       loc_800143C
 0000:08001442       dmr_radio_handle_header_type2_state_gate
 0000:0800146A       loc_800146A
 0000:0800147E       loc_800147E
 0000:08001480       loc_8001480
 0000:0800149A       loc_800149A
 0000:080014AE       loc_80014AE
 0000:080014B6       loc_80014B6
 0000:080014B8       loc_80014B8
 0000:080014C6       loc_80014C6
 0000:080014DA       loc_80014DA
 0000:080014DC       loc_80014DC
 0000:08001502       loc_8001502
 0000:08001508       loc_8001508
 0000:0800150A       loc_800150A
 0000:08001512       loc_8001512
 0000:08001514       loc_8001514
 0000:08001522       loc_8001522
 0000:08001536       loc_8001536
 0000:08001538       loc_8001538
 0000:0800155C       loc_800155C
 0000:08001566       loc_8001566
 0000:08001586       loc_8001586
 0000:0800158E       loc_800158E
 0000:0800159C       loc_800159C
 0000:080015A4       loc_80015A4
 0000:080015A6       loc_80015A6
 0000:080015AC       dmr_radio_handle_header_type6
 0000:080015D0       loc_80015D0
 0000:080015EA       loc_80015EA
 0000:080015F0       loc_80015F0
 0000:08001612       loc_8001612
 0000:08001628       loc_8001628
 0000:08001640       loc_8001640
 0000:0800164E       loc_800164E
 0000:0800165C       loc_800165C
 0000:0800166A       loc_800166A
 0000:08001678       loc_8001678
 0000:08001686       loc_8001686
 0000:08001694       loc_8001694
 0000:080016A4       loc_80016A4
 0000:080016A6       loc_80016A6
 0000:080016B0       loc_80016B0
 0000:080016BA       loc_80016BA
 0000:080016C4       loc_80016C4
 0000:080016CA       loc_80016CA
 0000:080016D6       locret_80016D6
 0000:080016D8       dmr_ctrl_handle_header_type5_select_profile
 0000:080016FE       loc_80016FE
 0000:08001720       loc_8001720
 0000:08001728       loc_8001728
 0000:0800172E       locret_800172E
 0000:08001730       dmr_ctrl_handle_header_type9_switch_active_entry
 0000:0800174A       loc_800174A
 0000:08001758       loc_8001758
 0000:08001780       loc_8001780
 0000:08001786       loc_8001786
 0000:08001788       loc_8001788
 0000:080017B0       loc_80017B0
 0000:080017E0       loc_80017E0
 0000:080017E6       loc_80017E6
 0000:080017E8       loc_80017E8
 0000:080017EE       locret_80017EE
 0000:080017F0       dmr_radio_handle_header_type8
 0000:080017FE       loc_80017FE
 0000:0800180C       loc_800180C
 0000:08001816       loc_8001816
 0000:08001824       loc_8001824
 0000:08001828       locret_8001828
 0000:0800182A       dmr_ctrl_query_active_state_flags
 0000:08001850       loc_8001850
 0000:0800185A       loc_800185A
 0000:0800185E       locret_800185E
 0000:08001860       dmr_radio_handle_header_type3
 0000:08001884       loc_8001884
 0000:080018B0       loc_80018B0
 0000:080018B8       loc_80018B8
 0000:080018C0       loc_80018C0
 0000:080018C8       loc_80018C8
 0000:080018D0       loc_80018D0
 0000:080018D6       loc_80018D6
 0000:080018E6       locret_80018E6
 0000:080018E8       off_80018E8
 0000:080018EC       off_80018EC
 0000:080018F0       off_80018F0
 0000:080018F4       off_80018F4
 0000:080018F8       off_80018F8
 0000:080018FC       dmr_ctrl_handle_header_type1_case1
 0000:08001926       loc_8001926
 0000:08001928       loc_8001928
 0000:0800192E       locret_800192E
 0000:08001930       dmr_radio_parse_air_header
 0000:08001974       dmr_radio_fail_and_rearm_idle
 0000:08001990       veda_util_build_utf16_reply
 0000:080019BC       loc_80019BC
 0000:080019CE       loc_80019CE
 0000:080019D4       locret_80019D4
 0000:080019D6       veda_util_strlen8
 0000:080019DA       loc_80019DA
 0000:080019DE       loc_80019DE
 0000:080019EA       dmr_tx_queue_buffer
 0000:08001A12       dmr_tx_queue_next_chunk
 0000:08001A28       dmr_rx_queue_buffer
 0000:08001A50       dmr_rx_queue_next_chunk
 0000:08001A66       dmr_tx_finalize_and_queue_empty
 0000:08001A8A       dmr_rx_finalize_and_queue_empty
 0000:08001AB0       veda_async_post_message
 0000:08001AC2       loc_8001AC2
 0000:08001AE8       loc_8001AE8
 0000:08001AF8       loc_8001AF8
 0000:08001B02       locret_8001B02
 0000:08001B04       veda_storage_write_staged_block256_pair
 0000:08001B38       veda_storage_read_staged_block64
 0000:08001B4A       veda_storage_write_staged_block64
 0000:08001B64       veda_hw_compute_token16
 0000:08001BAE       loc_8001BAE
 0000:08001BBE       loc_8001BBE
 0000:08001BD6       sub_8001BD6
 0000:08001BE8       sub_8001BE8
 0000:08001BF8       sub_8001BF8
 0000:08001C08       off_8001C08
 0000:08001C0C       off_8001C0C
 0000:08001C10       off_8001C10
 0000:08001C14       off_8001C14
 0000:08001C18       off_8001C18
 0000:08001C1C       off_8001C1C
 0000:08001C20       off_8001C20
 0000:08001C24       off_8001C24
 0000:08001C28       off_8001C28
 0000:08001C2C       sub_8001C2C
 0000:08001C4A       locret_8001C4A
 0000:08001C4C       sub_8001C4C
 0000:08001C5E       sub_8001C5E
 0000:08001C70       loc_8001C70
 0000:08001C7C       loc_8001C7C
 0000:08001C88       loc_8001C88
 0000:08001C8C       loc_8001C8C
 0000:08001D0A       loc_8001D0A
 0000:08001D0E       FLASH_ProgramWord
 0000:08001D56       loc_8001D56
 0000:08001D5A       sub_8001D5A
 0000:08001D6E       locret_8001D6E
 0000:08001D70       sub_8001D70
 0000:08001D7E       sub_8001D7E
 0000:08001D92       locret_8001D92
 0000:08001D94       sub_8001D94
 0000:08001DAC       sub_8001DAC
 0000:08001DBC       loc_8001DBC
 0000:08001DBE       loc_8001DBE
 0000:08001DC2       FLASH_GetStatus
 0000:08001DD0       loc_8001DD0
 0000:08001DDC       loc_8001DDC
 0000:08001DEA       loc_8001DEA
 0000:08001DF6       loc_8001DF6
 0000:08001DF8       loc_8001DF8
 0000:08001E00       off_8001E00
 0000:08001E04       dword_8001E04
 0000:08001E08       off_8001E08
 0000:08001E0C       dword_8001E0C
 0000:08001E10       off_8001E10
 0000:08001E14       dword_8001E14
 0000:08001E18       off_8001E18
 0000:08001E1C       dword_8001E1C
 0000:08001E20       off_8001E20
 0000:08001E24       off_8001E24
 0000:08001E28       FLASH_WaitForLastOperation
 0000:08001E3A       loc_8001E3A
 0000:08001E42       loc_8001E42
 0000:08001E50       sub_8001E50
 0000:08001E6C       loc_8001E6C
 0000:08001E94       loc_8001E94
 0000:08001E9E       loc_8001E9E
 0000:08001EC6       loc_8001EC6
 0000:08001EEE       dmr_radio_init_channel_entry
 0000:08001F0A       loc_8001F0A
 0000:08001F1C       loc_8001F1C
 0000:08001F38       loc_8001F38
 0000:08001F42       loc_8001F42
 0000:08001F4C       dmr_radio_queue_rx
 0000:08001F7E       loc_8001F7E
 0000:08001F8A       loc_8001F8A
 0000:08001F8E       loc_8001F8E
 0000:08001F92       dmr_radio_queue_tx
 0000:08001FC8       loc_8001FC8
 0000:08001FCE       loc_8001FCE
 0000:08001FD2       dmr_radio_set_entry_active
 0000:08001FEE       loc_8001FEE
 0000:08001FFE       loc_8001FFE
 0000:08002018       dmr_radio_set_entry_inactive
 0000:08002034       loc_8002034
 0000:08002044       loc_8002044
 0000:0800205E       dmr_ctrl_select_entry_nibble
 0000:08002072       sub_8002072
 0000:08002088       sub_8002088
 0000:080020A0       dmr_hw_init_usb_fs
 0000:08002108       off_8002108
 0000:0800210C       sub_800210C
 0000:08002136       sub_8002136
 0000:08002144       loc_8002144
 0000:0800214C       sub_800214C
 0000:0800215C       veda_radio_bind_ops_and_init
 0000:0800219A       sub_800219A
 0000:0800219E       dmr_radio_dispatch_air_header
 0000:080021C0       loc_80021C0
 0000:080021CA       loc_80021CA
 0000:080021D4       loc_80021D4
 0000:080021DE       loc_80021DE
 0000:080021EC       loc_80021EC
 0000:080021F0       dmr_tx_stream_on_chunk_done
 0000:08002226       loc_8002226
 0000:08002232       loc_8002232
 0000:08002234       loc_8002234
 0000:08002240       loc_8002240
 0000:0800225C       loc_800225C
 0000:08002264       loc_8002264
 0000:08002282       loc_8002282
 0000:08002286       dmr_rx_stream_on_chunk_done
 0000:080022BE       loc_80022BE
 0000:080022CC       loc_80022CC
 0000:080022F8       dmr_ctrl_commit_pending_rf_mode_word_0
 0000:080022FC       loc_80022FC
 0000:08002318       loc_8002318
 0000:0800231E       loc_800231E
 0000:08002334       loc_8002334
 0000:08002352       loc_8002352
 0000:08002356       dmr_ctrl_commit_pending_rf_mode_word
 0000:08002364       off_8002364
 0000:08002368       dmr_radio_reset_channel_entries_and_start
 0000:08002398       dmr_radio_resume_after_pause_to_active
 0000:080023B6       dmr_radio_pause_and_store_prev_state
 0000:080023D2       dmr_tx_notify_idle_or_done
 0000:080023E6       loc_80023E6
 0000:080023EA       dmr_ctrl_set_active_entry_and_notify
 0000:08002406       dmr_ctrl_clear_active_entry
 0000:08002416       dmr_tx_notify_event32
 0000:08002424       dmr_tx_notify_event36
 0000:08002434       sub_8002434
 0000:08002454       sub_8002454
 0000:08002462       loc_8002462
 0000:0800247A       loc_800247A
 0000:08002492       loc_8002492
 0000:080024A6       loc_80024A6
 0000:080024B0       locret_80024B0
 0000:080024B2       veda_dma_write_channel_words
 0000:080024DA       loc_80024DA
 0000:080024E2       loc_80024E2
 0000:080024E6       loc_80024E6
 0000:080024EC       dmr_radio_copy_air_header8
 0000:08002502       loc_8002502
 0000:0800250A       loc_800250A
 0000:08002514       veda_radio_init_dma_layout
 0000:0800254A       loc_800254A
 0000:08002564       loc_8002564
 0000:08002570       loc_8002570
 0000:0800258E       loc_800258E
 0000:080025A6       loc_80025A6
 0000:080025B8       loc_80025B8
 0000:080025C2       loc_80025C2
 0000:080025D8       loc_80025D8
 0000:080025EE       sub_80025EE
 0000:08002612       loc_8002612
 0000:0800264C       loc_800264C
 0000:0800267A       loc_800267A
 0000:08002684       loc_8002684
 0000:0800269C       loc_800269C
 0000:080026A2       sub_80026A2
 0000:080026BA       sub_80026BA
 0000:080026D4       sub_80026D4
 0000:080026F6       loc_80026F6
 0000:0800270E       loc_800270E
 0000:0800271A       sub_800271A
 0000:08002734       loc_8002734
 0000:0800274C       loc_800274C
 0000:08002758       dword_8002758
 0000:0800275C       off_800275C
 0000:08002760       sub_8002760
 0000:0800277C       loc_800277C
 0000:08002786       loc_8002786
 0000:08002796       sub_8002796
 0000:080027A0       sub_80027A0
 0000:080027AE       loc_80027AE
 0000:080027B0       loc_80027B0
 0000:080027B4       sub_80027B4
 0000:080027C4       sub_80027C4
 0000:080027D4       sub_80027D4
 0000:0800284C       loc_800284C
 0000:08002878       loc_8002878
 0000:0800287A       loc_800287A
 0000:08002898       loc_8002898
 0000:080028B8       loc_80028B8
 0000:080028BC       loc_80028BC
 0000:080028BE       loc_80028BE
 0000:080028DC       loc_80028DC
 0000:080028FC       loc_80028FC
 0000:08002932       loc_8002932
 0000:0800293E       sub_800293E
 0000:08002964       loc_8002964
 0000:08002996       sub_8002996
 0000:080029B2       loc_80029B2
 0000:080029B6       loc_80029B6
 0000:080029BA       loc_80029BA
 0000:080029BC       loc_80029BC
 0000:080029C2       sub_80029C2
 0000:080029E4       loc_80029E4
 0000:080029EA       loc_80029EA
 0000:080029F0       loc_80029F0
 0000:08002A0C       veda_dma_build_channel_desc_flags
 0000:08002A32       loc_8002A32
 0000:08002A46       loc_8002A46
 0000:08002A6C       loc_8002A6C
 0000:08002A7E       veda_dma_start_channel_transfer
 0000:08002AB4       loc_8002AB4
 0000:08002AD8       loc_8002AD8
 0000:08002AF6       loc_8002AF6
 0000:08002B14       loc_8002B14
 0000:08002B28       loc_8002B28
 0000:08002B2C       loc_8002B2C
 0000:08002B52       loc_8002B52
 0000:08002B7A       loc_8002B7A
 0000:08002B98       loc_8002B98
 0000:08002BB4       loc_8002BB4
 0000:08002BC6       loc_8002BC6
 0000:08002BCA       loc_8002BCA
 0000:08002BDC       loc_8002BDC
 0000:08002BE2       veda_dma_start_channel_transfer_alt
 0000:08002C16       loc_8002C16
 0000:08002C2E       loc_8002C2E
 0000:08002C38       loc_8002C38
 0000:08002C42       loc_8002C42
 0000:08002C58       loc_8002C58
 0000:08002C86       loc_8002C86
 0000:08002CB8       loc_8002CB8
 0000:08002CD0       loc_8002CD0
 0000:08002CEE       loc_8002CEE
 0000:08002D00       loc_8002D00
 0000:08002D08       veda_dma_set_desc_flag_0x200000
 0000:08002D26       loc_8002D26
 0000:08002D2E       loc_8002D2E
 0000:08002D3E       loc_8002D3E
 0000:08002D44       veda_dma_update_desc_mode_flags
 0000:08002D5A       loc_8002D5A
 0000:08002D62       loc_8002D62
 0000:08002D74       loc_8002D74
 0000:08002D78       loc_8002D78
 0000:08002D82       veda_dma_get_active_mask_hi16
 0000:08002D90       veda_dma_test_desc_enable_mask
 0000:08002DA4       veda_dma_test_halfword_mask
 0000:08002DB2       dmr_radio_handle_rx_header_ingress
 0000:08002DFA       loc_8002DFA
 0000:08002E00       sub_8002E00
 0000:08002E08       sub_8002E08
 0000:08002E0E       sub_8002E0E
 0000:08002E28       loc_8002E28
 0000:08002E2A       sub_8002E2A
 0000:08002E32       sub_8002E32
 0000:08002E3A       PendSV_Handler
 0000:08002E58       loc_8002E58
 0000:08002E90       off_8002E90
 0000:08002E94       off_8002E94
 0000:08002E98       off_8002E98
 0000:08002E9C       off_8002E9C
 0000:08002EA0       off_8002EA0
 0000:08002EA4       off_8002EA4
 0000:08002EA8       off_8002EA8
 0000:08002EAC       off_8002EAC
 0000:08002EB0       off_8002EB0
 0000:08002EB4       sub_8002EB4
 0000:08002F22       loc_8002F22
 0000:08002F30       sub_8002F30
 0000:08002F62       loc_8002F62
 0000:08002F66       sub_8002F66
 0000:08002FBA       loc_8002FBA
 0000:08002FC2       sub_8002FC2
 0000:08002FE0       off_8002FE0
 0000:08002FE4       off_8002FE4
 0000:08002FE8       off_8002FE8
 0000:08002FEC       off_8002FEC
 0000:08002FF0       off_8002FF0
 0000:08002FF4       off_8002FF4
 0000:08002FF8       off_8002FF8
 0000:08002FFC       off_8002FFC
 0000:08003000       off_8003000
 0000:08003004       off_8003004
 0000:08003008       sub_8003008
 0000:0800307E       sub_800307E
 0000:080030B2       sub_80030B2
 0000:080030E6       sub_80030E6
 0000:08003116       loc_8003116
 0000:0800311E       loc_800311E
 0000:08003132       sub_8003132
 0000:0800317A       loc_800317A
 0000:08003190       loc_8003190
 0000:080031AC       loc_80031AC
 0000:080031E8       loc_80031E8
 0000:080031F4       loc_80031F4
 0000:08003228       loc_8003228
 0000:0800323E       loc_800323E
 0000:08003262       locret_8003262
 0000:08003266       dmr_spi_flash_read_data
 0000:08003292       loc_8003292
 0000:0800329C       loc_800329C
 0000:080032AC       SPI1_SEND
 0000:080032B0       loc_80032B0
 0000:080032C8       loc_80032C8
 0000:080032DE       sub_80032DE
 0000:080032F0       sub_80032F0
 0000:080032FE       loc_80032FE
 0000:08003310       resert_portD_pin7
 0000:0800331C       set_portD_pin7
 0000:08003328       sub_8003328
 0000:080033AC       loc_80033AC
 0000:080033C8       loc_80033C8
 0000:0800340A       loc_800340A
 0000:08003494       loc_8003494
 0000:080034EE       loc_80034EE
 0000:08003546       loc_8003546
 0000:08003562       loc_8003562
 0000:080035AC       locret_80035AC
 0000:080035B4       off_80035B4
 0000:080035B8       off_80035B8
 0000:080035BC       off_80035BC
 0000:080035C0       off_80035C0
 0000:080035C4       sub_80035C4
 0000:080035F8       sub_80035F8
 0000:08003628       loc_8003628
 0000:08003630       loc_8003630
 0000:08003644       veda_spi_flash_read_security_regs
 0000:08003678       loc_8003678
 0000:08003682       loc_8003682
 0000:08003694       HAL_RCC_EnableCSS
 0000:0800369E       RCM_AHB1PeriphClockCmd
 0000:080036B0       loc_80036B0
 0000:080036BC       locret_80036BC
 0000:080036BE       RCM_AHB2PeriphClockCmd
 0000:080036D0       loc_80036D0
 0000:080036DC       locret_80036DC
 0000:080036DE       RCM_APB2PeriphClockCmd
 0000:080036F0       loc_80036F0
 0000:080036FC       locret_80036FC
 0000:08003700       off_8003700
 0000:08003704       off_8003704
 0000:08003708       off_8003708
 0000:0800370C       off_800370C
 0000:08003710       sub_8003710
 0000:08003718       sub_8003718
 0000:08003724       off_8003724
 0000:08003728       off_8003728
 0000:0800372C       GPIO_Init
 0000:08003738       loc_8003738
 0000:08003770       loc_8003770
 0000:080037A6       loc_80037A6
 0000:080037B6       dmr_crc_hw_reset
 0000:080037C6       loc_80037C6
 0000:080037C8       loc_80037C8
 0000:080037D0       dmr_crc_hw_feed_word
 0000:080037DE       loc_80037DE
 0000:080037E0       loc_80037E0
 0000:080037E6       GPIO_SetBits
 0000:080037EA       GPIO_ResetBits
 0000:080037EE       GPIO_WriteBit
 0000:080037F8       loc_80037F8
 0000:080037FA       locret_80037FA
 0000:080037FC       GPIO_PinAFConfig
 0000:0800384C       NVIC_PriorityGroupConfig
 0000:08003856       sub_8003856
 0000:080038A0       loc_80038A0
 0000:080038B4       locret_80038B4
 0000:080038B8       dword_80038B8
 0000:080038BC       off_80038BC
 0000:080038C0       off_80038C0
 0000:080038C4       off_80038C4
 0000:080038C8       off_80038C8
 0000:080038CC       SPI_Init
 0000:0800390A       SPI_Cmd
 0000:0800391A       loc_800391A
 0000:08003924       locret_8003924
 0000:08003926       SPI_I2S_ReceiveData
 0000:0800392A       SPI_I2S_SendData
 0000:0800392E       SPI_I2S_GetFlagStatus
 0000:0800393A       loc_800393A
 0000:0800393C       loc_800393C
 0000:08003944       sub_8003944
 0000:08003964       loc_8003964
 0000:08003974       loc_8003974
 0000:08003984       loc_8003984
 0000:08003996       loc_8003996
 0000:080039A4       loc_80039A4
 0000:080039B4       loc_80039B4
 0000:080039C4       loc_80039C4
 0000:080039D4       loc_80039D4
 0000:080039E4       loc_80039E4
 0000:080039F4       loc_80039F4
 0000:08003A04       loc_8003A04
 0000:08003A14       loc_8003A14
 0000:08003A16       locret_8003A16
 0000:08003A18       sub_8003A18
 0000:08003A34       loc_8003A34
 0000:08003A60       dmr_system_pwr_save_sync
 0000:08003ADE       loc_8003ADE
 0000:08003AE2       veda_dma_tx_irq_dispatch
 0000:08003AF4       loc_8003AF4
 0000:08003B4E       loc_8003B4E
 0000:08003B64       loc_8003B64
 0000:08003B7A       loc_8003B7A
 0000:08003B90       loc_8003B90
 0000:08003BA6       loc_8003BA6
 0000:08003BC4       loc_8003BC4
 0000:08003BC8       loc_8003BC8
 0000:08003BD0       veda_dma_rx_irq_dispatch
 0000:08003BE2       loc_8003BE2
 0000:08003C30       loc_8003C30
 0000:08003C56       loc_8003C56
 0000:08003C6C       loc_8003C6C
 0000:08003C8C       loc_8003C8C
 0000:08003C90       loc_8003C90
 0000:08003C98       veda_dma_notify_desc_flag_08
 0000:08003CB4       dmr_radio_latch_air_header_event
 0000:08003CFA       loc_8003CFA
 0000:08003CFC       loc_8003CFC
 0000:08003D24       loc_8003D24
 0000:08003D26       loc_8003D26
 0000:08003D28       loc_8003D28
 0000:08003D2A       loc_8003D2A
 0000:08003D42       loc_8003D42
 0000:08003D50       veda_dma_feed_tx_payload
 0000:08003D7A       loc_8003D7A
 0000:08003D8A       loc_8003D8A
 0000:08003D98       loc_8003D98
 0000:08003DC2       loc_8003DC2
 0000:08003DD6       loc_8003DD6
 0000:08003DDC       veda_dma_notify_post_reset
 0000:08003E06       loc_8003E06
 0000:08003E1C       loc_8003E1C
 0000:08003E84       sub_8003E84
 0000:08003EAE       loc_8003EAE
 0000:08003EBC       loc_8003EBC
 0000:08003ECE       veda_dma_notify_flag_0x100000
 0000:08003EEA       veda_dma_notify_flag_0x200000
 0000:08003F08       off_8003F08
 0000:08003F0C       off_8003F0C
 0000:08003F10       sub_8003F10
 0000:08003F30       main_loop
 0000:08003FE8       loc_8003FE8
 0000:08003FF6       loc_8003FF6
 0000:0800401E       loc_800401E
 0000:0800402E       loc_800402E
 0000:0800404A       loc_800404A
 0000:08004058       loc_8004058
 0000:0800407E       loc_800407E
 0000:08004088       loc_8004088
 0000:08004096       loc_8004096
 0000:080040C6       sub_80040C6
 0000:08004132       sub_8004132
 0000:08004272       dmr_system_optionbyte_setup
 0000:080042E4       veda_storage_bootstrap_read_staged_block64
 0000:08004396       loc_8004396
 0000:080043A0       loc_80043A0
 0000:080043B8       loc_80043B8
 0000:080043BE       loc_80043BE
 0000:080043C8       off_80043C8
 0000:080043CC       off_80043CC
 0000:080043D0       off_80043D0
 0000:080043D4       off_80043D4
 0000:080043D8       dword_80043D8
 0000:080043DC       off_80043DC
 0000:080043E0       dword_80043E0
 0000:080043E4       off_80043E4
 0000:080043E8       off_80043E8
 0000:080043EC       off_80043EC
 0000:080043F0       dword_80043F0
 0000:080043F4       off_80043F4
 0000:080043F8       off_80043F8
 0000:080043FC       off_80043FC
 0000:08004400       veda_radio_bootstrap_bind_ops
 0000:08004466       loc_8004466
 0000:08004478       off_8004478
 0000:0800447C       off_800447C
 0000:08004480       dword_8004480
 0000:08004484       off_8004484
 0000:08004488       off_8004488
 0000:0800448C       off_800448C
 0000:08004490       off_8004490
 0000:08004494       off_8004494
 0000:08004498       off_8004498
 0000:0800449C       off_800449C
 0000:080044A0       byte_80044A0
 0000:080048A0       sub_80048A0
 0000:080048AA       sub_80048AA
 0000:080048B4       sub_80048B4
 0000:080048C4       loc_80048C4
 0000:080048C6       locret_80048C6
 0000:080048C8       loc_80048C8
 0000:080048D8       loc_80048D8
 0000:080048E8       loc_80048E8
 0000:080048F8       loc_80048F8
 0000:08004908       loc_8004908
 0000:08004918       loc_8004918
 0000:08004928       loc_8004928
 0000:08004938       loc_8004938
 0000:08004948       loc_8004948
 0000:08004958       loc_8004958
 0000:08004968       loc_8004968
 0000:08004978       loc_8004978
 0000:0800497C       dmr_system_flash_write_obfuscated
 0000:08004988       loc_8004988
 0000:08004998       loc_8004998
 0000:080049A8       loc_80049A8
 0000:080049B0       loc_80049B0
 0000:080049BC       loc_80049BC
 0000:080049C0       loc_80049C0
 0000:080049CE       loc_80049CE
 0000:080049D6       sub_80049D6
 0000:080049E8       loc_80049E8
 0000:080049EA       locret_80049EA
 0000:080049EC       dword_80049EC
 0000:080049F0       off_80049F0
 0000:080049F4       off_80049F4
 0000:080049F8       off_80049F8
 0000:080049FC       off_80049FC
 0000:08004A00       off_8004A00
 0000:08004A04       off_8004A04
 0000:08004A08       off_8004A08
 0000:08004A0C       off_8004A0C
 0000:08004A10       off_8004A10
 0000:08004A14       off_8004A14
 0000:08004A18       off_8004A18
 0000:08004A1C       off_8004A1C
 0000:08004A20       SystemInit
 0000:08004A68       loc_8004A68
 0000:08004A6A       loc_8004A6A
 0000:08004A80       SetSysClock
 0000:08004A96       loc_8004A96
 0000:08004AB4       loc_8004AB4
 0000:08004AC2       loc_8004AC2
 0000:08004AC6       loc_8004AC6
 0000:08004B12       loc_8004B12
 0000:08004B3A       loc_8004B3A
 0000:08004B46       loc_8004B46
 0000:08004B4C       off_8004B4C
 0000:08004B50       off_8004B50
 0000:08004B54       off_8004B54
 0000:08004B58       dword_8004B58
 0000:08004B5C       dword_8004B5C
 0000:08004B60       off_8004B60
 0000:08004B64       off_8004B64
 0000:08004B68       off_8004B68
 0000:08004B6C       off_8004B6C
 0000:08004B70       off_8004B70
 0000:08004B74       dword_8004B74
 0000:08004B78       off_8004B78
 0000:08004B7C       dword_8004B7C
 0000:08004C84       sub_8004C84
 0000:08004C8C       sub_8004C8C
 0000:08004CA0       loc_8004CA0
 0000:08004CAA       loc_8004CAA
 0000:08004CAE       sub_8004CAE
 0000:08004CBE       sub_8004CBE
 0000:08004CD2       loc_8004CD2
 0000:08004CDC       loc_8004CDC
 0000:08004D02       sub_8004D02
 0000:08004D16       loc_8004D16
 0000:08004D20       loc_8004D20
 0000:08004D24       off_8004D24
 0000:08004D28       off_8004D28
 0000:08004D2C       off_8004D2C
 0000:08004D30       off_8004D30
 0000:08004D34       off_8004D34
 0000:08004D38       off_8004D38
 0000:08004D3C       off_8004D3C
 0000:08004D40       off_8004D40
 0000:08004D44       off_8004D44
 0000:08004D48       sub_8004D48
 0000:08004D52       sub_8004D52
 0000:08004D56       sub_8004D56
 0000:08004D60       sub_8004D60
 0000:08004D68       loc_8004D68
 0000:08004D78       loc_8004D78
 0000:08004D8A       loc_8004D8A
 0000:08004D92       loc_8004D92
 0000:08004DA4       loc_8004DA4
 0000:08004DA8       loc_8004DA8
 0000:08004DC4       loc_8004DC4
 0000:08004DCC       sub_8004DCC
 0000:08004DE0       off_8004DE0
 0000:08004DE4       off_8004DE4
 0000:08004DF2       loc_8004DF2
 0000:08004DF4       locret_8004DF4
 0000:08004DF6       __iar_lz77_init_single3
 0000:08004E0A       loc_8004E0A
 0000:08004E14       loc_8004E14
 0000:08004E32       loc_8004E32
 0000:08004E3A       loc_8004E3A
 0000:08004E60       loc_8004E60
 0000:08004E6E       __iar_zero_init3
 0000:08004E70       loc_8004E70
 0000:08004E7E       loc_8004E7E
 0000:08004E9C       loc_8004E9C
 0000:08004EA4       loc_8004EA4
 0000:08004EB0       aInternalFlash0
 0000:08004EEC       aInternalFlash0_0
 0000:08004F28       NMI_handler
 0000:08004F2A       HardFault_handler
 0000:08004F2C       MemManage_fault_handler
 0000:08004F2E       BusFault_handler
 0000:08004F30       UsageFault_handler
 0000:08004F32       SVCall_handler
 0000:08004F34       DebugMonitor_handler
 0000:08004F36       SysTick_handler
 0000:08004F38       IRQ_42_handler
 0000:08004F3A       sub_8004F3A
 0000:08004F44       off_8004F44
 0000:08004F48       IRQ_9_handler
 0000:08004F4A       IRQ_8_handler
 0000:08004F4C       IRQ_7_handler
 0000:08004F4E       IRQ_6_handler
 0000:08004F50       IRQ_30_handler
 0000:08004F52       IRQ_29_handler
 0000:08004F54       IRQ_54_handler
 0000:08004F56       IRQ_55_handler
 0000:08004F58       IRQ_44_handler
 0000:08004F5A       IRQ_3_handler
 0000:08004F5C       IRQ_59_handler
 0000:08004F60       aSpiFlashMemory
 0000:08004F88       aSpiFlashMemory_0
 0000:08004FB0       __iar_data_init3_0
 0000:08004FC0       loc_8004FC0
 0000:08004FCA       loc_8004FCA
 0000:08004FD0       off_8004FD0
 0000:08004FD4       off_8004FD4
 0000:08004FD8       nullsub_18
 0000:08004FDA       nullsub_19
 0000:08004FDC       sub_8004FDC
 0000:08004FF0       off_8004FF0
 0000:08004FF4       nullsub_20
 0000:08004FF6       nullsub_21
 0000:08004FF8       nullsub_22
 0000:08004FFA       nullsub_23
 0000:08004FFC       __scatterload_rt2_thumb_only
 0000:08005006       loc_8005006
 0000:08005020       dword_8005020
 0000:08005028       off_8005028
 0000:08005040       aDigitalRadioIn
 0000:0800505C       runtime_main_entry
 0000:08005068       loc_8005068
 0000:08005076       sub_8005076
 0000:0800507A       sub_800507A
 0000:08005080       loc_8005080
 0000:08005082       loc_8005082
 0000:0800508C       sub_800508C
 0000:08005094       loc_8005094
 0000:0800509C       dword_800509C
 0000:080050A0       aDigitalRadioCo
 0000:080050B8       aDigitalRadioIn_0
 0000:080050D0       aAnyroadTechnol
 0000:080050E4       a00000000010b
 0000:080050F4       a00000000010c
 0000:08005104       Reset_handler
 0000:0800510C       off_800510C
 0000:08005110       off_8005110
 0000:08005114       runtime_entry
 0000:08005120       j_NMI_handler
 0000:08005124       j_HardFault_handler
 0000:08005128       j_MemManage_fault_handler
 0000:0800512C       j_BusFault_handler
 0000:08005130       j_UsageFault_handler
 0000:08005134       j_SVCall_handler
 0000:08005138       j_DebugMonitor_handler
 0000:0800513C       j_PendSV_handler
 0000:08005140       j_SysTick_handler
 0000:08005144       IRQ_0_handler
 0000:08005148       IRQ_1_handler
 0000:0800514C       IRQ_2_handler
 0000:08005150       j_IRQ_3_handler
 0000:08005154       IRQ_4_handler
 0000:08005158       IRQ_5_handler
 0000:0800515C       j_IRQ_6_handler
 0000:08005160       j_IRQ_7_handler
 0000:08005164       j_IRQ_8_handler
 0000:08005168       j_IRQ_9_handler
 0000:0800516C       IRQ_10_handler
 0000:08005170       IRQ_11_handler
 0000:08005174       IRQ_12_handler
 0000:08005178       IRQ_13_handler
 0000:0800517C       IRQ_14_handler
 0000:08005180       IRQ_15_handler
 0000:08005184       IRQ_16_handler
 0000:08005188       IRQ_17_handler
 0000:0800518C       IRQ_18_handler
 0000:08005190       IRQ_19_handler
 0000:08005194       IRQ_20_handler
 0000:08005198       IRQ_21_handler
 0000:0800519C       IRQ_22_handler
 0000:080051A0       IRQ_23_handler
 0000:080051A4       IRQ_24_handler
 0000:080051A8       IRQ_25_handler
 0000:080051AC       IRQ_26_handler
 0000:080051B0       IRQ_27_handler
 0000:080051B4       IRQ_28_handler
 0000:080051B8       j_IRQ_29_handler
 0000:080051BC       j_IRQ_30_handler
 0000:080051C0       IRQ_31_handler
 0000:080051C4       IRQ_32_handler
 0000:080051C8       IRQ_33_handler
 0000:080051CC       IRQ_34_handler
 0000:080051D0       IRQ_35_handler
 0000:080051D4       IRQ_36_handler
 0000:080051D8       IRQ_37_handler
 0000:080051DC       IRQ_38_handler
 0000:080051E0       IRQ_39_handler
 0000:080051E4       IRQ_40_handler
 0000:080051E8       IRQ_41_handler
 0000:080051EC       j_IRQ_42_handler
 0000:080051F0       IRQ_43_handler
 0000:080051F4       j_IRQ_44_handler
 0000:080051F8       IRQ_45_handler
 0000:080051FC       IRQ_46_handler
 0000:08005200       IRQ_47_handler
 0000:08005204       IRQ_48_handler
 0000:08005208       IRQ_49_handler
 0000:0800520C       IRQ_50_handler
 0000:08005210       IRQ_51_handler
 0000:08005214       IRQ_52_handler
 0000:08005218       IRQ_53_handler
 0000:0800521C       j_IRQ_54_handler
 0000:08005220       j_IRQ_55_handler
 0000:08005224       IRQ_56_handler
 0000:08005228       IRQ_57_handler
 0000:0800522C       IRQ_58_handler
 0000:08005230       j_IRQ_59_handler
 0000:08005234       IRQ_60_handler
 0000:08005238       sub_8005238
 0000:0800523C       sub_800523C
 0000:08005240       sub_8005240
 0000:08005244       sub_8005244
 0000:08005248       sub_8005248
 0000:0800524C       sub_800524C
 0000:08005250       sub_8005250
 0000:08005254       sub_8005254
 0000:08005258       sub_8005258
 0000:0800525C       sub_800525C
 0000:08005260       sub_8005260
 0000:08005264       sub_8005264
 0000:08005268       sub_8005268
 0000:0800526C       sub_800526C
 0000:08005270       sub_8005270
 0000:08005274       sub_8005274
 0000:08005278       sub_8005278
 0000:0800527C       sub_800527C
 0000:08005280       sub_8005280
 0000:08005284       sub_8005284
 0000:08005288       sub_8005288
 0000:0800528C       nullsub_27
 0000:080053B0       main
 0000:080053E4       off_80053E4
 0000:080053E8       off_80053E8
 0000:080053EC       off_80053EC
 0000:080053F0       off_80053F0
 0000:080053F4       off_80053F4
 0000:080053F8       off_80053F8
 0000:080053FC       off_80053FC
 0000:08005400       off_8005400
 0000:08005404       veda_service_poll_key_ctx
 0000:0800540C       veda_backend_get_service_buffer_ptr
 0000:08005410       off_8005410
 0000:08005414       veda_backend_desc_b_noop_probe
 0000:08005418       veda_backend_desc_a_init_service_ctx
 0000:08005424       veda_service_init_key_ctx
 0000:08005430       off_8005430
 0000:08005434       dmr_key_verify_and_program_block
 0000:08005488       loc_8005488
 0000:0800548A       loc_800548A
 0000:08005492       loc_8005492
 0000:08005504       loc_8005504
 0000:0800550E       loc_800550E
 0000:0800551A       loc_800551A
 0000:08005520       off_8005520
 0000:08005524       off_8005524
 0000:08005528       off_8005528
 0000:0800552C       dmr_key_storage_begin_update
 0000:0800553C       dmr_key_storage_program_words
 0000:08005550       loc_8005550
 0000:08005562       loc_8005562
 0000:08005586       loc_8005586
 0000:08005592       loc_8005592
 0000:0800559E       locret_800559E
 0000:080055A4       off_80055A4
 0000:080055A8       dmr_key_service_try_get_pending
 0000:080055C8       off_80055C8
 0000:080055CC       dmr_key_service_poll
 0000:08005602       loc_8005602
 0000:08005608       off_8005608
 0000:0800560C       off_800560C
 0000:08005610       dmr_key_sub_8005610
 0000:08005632       loc_8005632
 0000:08005646       loc_8005646
 0000:0800564A       loc_800564A
 0000:08005650       loc_8005650
 0000:08005664       loc_8005664
 0000:08005674       loc_8005674
 0000:08005676       loc_8005676
 0000:0800567A       loc_800567A
 0000:08005690       off_8005690
 0000:08005694       dword_8005694
 0000:08005698       off_8005698
 0000:0800569C       sub_800569C
 0000:080056A0       dmr_key_service_schedule
 0000:080056C0       off_80056C0
 0000:080056C4       dmr_key_service_init
 0000:080056CE       loc_80056CE
 0000:080056E6       loc_80056E6
 0000:080056EC       dmr_key_read_device_secret
 0000:08005706       loc_8005706
 0000:08005728       loc_8005728
 0000:0800575C       dword_800575C
 0000:08005760       off_8005760
 0000:08005764       off_8005764
 0000:08005768       veda_stream_init
 0000:08005786       dmr_crypto_process_buffer
 0000:08005792       dmr_hw_spi_transfer
 0000:0800579C       loc_800579C
 0000:080057AC       loc_80057AC
 0000:080057B4       veda_service_slot08_rx_queue_handler
 0000:080057C6       loc_80057C6
 0000:080057E4       loc_80057E4
 0000:080057FC       loc_80057FC
 0000:08005800       loc_8005800
 0000:08005808       off_8005808
 0000:0800580C       off_800580C
 0000:08005810       veda_service_slot0c_dispatch_gate
 0000:08005826       loc_8005826
 0000:0800582A       loc_800582A
 0000:08005836       loc_8005836
 0000:0800584A       process_pending_command_0
 0000:08005856       loc_8005856
 0000:08005868       loc_8005868
 0000:0800586C       loc_800586C
 0000:08005888       loc_8005888
 0000:0800588E       loc_800588E
 0000:08005894       loc_8005894
 0000:0800589E       loc_800589E
 0000:080058A4       loc_80058A4
 0000:080058C2       loc_80058C2
 0000:080058C8       off_80058C8
 0000:080058CC       off_80058CC
 0000:080058D0       off_80058D0
 0000:080058D4       veda_service_process_pending
 0000:080058EA       loc_80058EA
 0000:080058F2       loc_80058F2
 0000:08005900       off_8005900
 0000:08005904       off_8005904
 0000:08005908       sub_8005908
 0000:08005924       off_8005924
 0000:08005928       veda_service_cmd_dispatcher
 0000:08005942       jpt_800593E
 0000:08005958       loc_8005958
 0000:08005968       def_800593E
 0000:0800597A       loc_800597A
 0000:080059E4       loc_80059E4
 0000:080059FE       loc_80059FE
 0000:08005A04       loc_8005A04
 0000:08005A08       loc_8005A08
 0000:08005A14       loc_8005A14
 0000:08005A30       loc_8005A30
 0000:08005A48       loc_8005A48
 0000:08005A66       loc_8005A66
 0000:08005A94       loc_8005A94
 0000:08005AF6       loc_8005AF6
 0000:08005B06       loc_8005B06
 0000:08005B30       loc_8005B30
 0000:08005BCC       loc_8005BCC
 0000:08005BE8       loc_8005BE8
 0000:08005BEC       loc_8005BEC
 0000:08005C00       loc_8005C00
 0000:08005C0A       loc_8005C0A
 0000:08005C10       loc_8005C10
 0000:08005C2C       loc_8005C2C
 0000:08005C30       loc_8005C30
 0000:08005C80       loc_8005C80
 0000:08005C90       off_8005C90
 0000:08005C94       loc_8005C94
 0000:08005CA0       loc_8005CA0
 0000:08005CCA       loc_8005CCA
 0000:08005CD0       loc_8005CD0
 0000:08005CDC       off_8005CDC
 0000:08005CE0       off_8005CE0
 0000:08005CE4       off_8005CE4
 0000:08005CE8       dword_8005CE8
 0000:08005CEC       dword_8005CEC
 0000:08005CF0       dword_8005CF0
 0000:08005CF4       dword_8005CF4
 0000:08005CF8       dword_8005CF8
 0000:08005CFC       dword_8005CFC
 0000:08005D00       dword_8005D00
 0000:08005D04       dword_8005D04
 0000:08005D08       off_8005D08
 0000:08005D0C       off_8005D0C
 0000:08005D10       off_8005D10
 0000:08005D14       off_8005D14
 0000:08005D18       off_8005D18
 0000:08005D1C       off_8005D1C
 0000:08005D20       dword_8005D20
 0000:08005D24       dword_8005D24
 0000:08005D28       dword_8005D28
 0000:08005D2C       sub_8005D2C
 0000:08005D3C       loc_8005D3C
 0000:08005D50       off_8005D50
 0000:08005D54       veda_key_primary_material_init
 0000:08005D96       loc_8005D96
 0000:08005D9A       loc_8005D9A
 0000:08005DA0       off_8005DA0
 0000:08005DA4       off_8005DA4
 0000:08005DA8       off_8005DA8
 0000:08005DAC       veda_primary_material_refresh_or_init
 0000:08005DB8       off_8005DB8
 0000:08005DBC       sub_8005DBC
 0000:08005DC0       loc_8005DC0
 0000:08005DD4       loc_8005DD4
 0000:08005DE0       off_8005DE0
 0000:08005DE4       dmr_perm384_domain_permute
 0000:08005DFA       loc_8005DFA
 0000:08005E06       loc_8005E06
 0000:08005E4C       loc_8005E4C
 0000:08005E64       loc_8005E64
 0000:08005E86       loc_8005E86
 0000:08005E8C       dword_8005E8C
 0000:08005E90       dmr_crypto_generate_keystream
 0000:08005EF2       loc_8005EF2
 0000:08005F08       loc_8005F08
 0000:08005F26       loc_8005F26
 0000:08005F30       dword_8005F30
 0000:08005F34       dword_8005F34
 0000:08005F38       off_8005F38
 0000:08005F3C       dmr_crypto_xor_bytes
 0000:08005F46       veda_service_stream_xor_update
 0000:08005F4E       loc_8005F4E
 0000:08005F54       loc_8005F54
 0000:08005F66       loc_8005F66
 0000:08005F7C       loc_8005F7C
 0000:08005F9C       loc_8005F9C
 0000:08005FA4       dmr_crypto_init_state
 0000:0800600E       loc_800600E
 0000:08006012       loc_8006012
 0000:08006030       dword_8006030
 0000:08006034       dmr_crypto_squeeze_bytes
 0000:08006048       loc_8006048
 0000:08006050       loc_8006050
 0000:08006090       loc_8006090
 0000:080060A6       loc_80060A6
 0000:080060C0       loc_80060C0
 0000:080060CC       dmr_kdf_derive_from_key
 0000:0800613E       loc_800613E
 0000:08006142       loc_8006142
 0000:08006198       dword_8006198
 0000:0800619C       dmr_crypto_verify_tag
 0000:080061A4       loc_80061A4
 0000:080061BC       dmr_crypto_clear_state
 0000:080061C4       loc_80061C4
 0000:080061D6       veda_stream_cfb128_crypt
 0000:080061FE       loc_80061FE
 0000:08006202       loc_8006202
 0000:0800621E       loc_800621E
 0000:08006220       loc_8006220
 0000:08006228       loc_8006228
 0000:08006236       loc_8006236
 0000:0800624C       loc_800624C
 0000:08006258       loc_8006258
 0000:08006268       loc_8006268
 0000:0800626A       loc_800626A
 0000:08006274       veda_service_cfb128_xor_core
 0000:08006294       jpt_8006290
 0000:0800629C       loc_800629C
 0000:080062B2       loc_80062B2
 0000:080062C8       loc_80062C8
 0000:080062D4       loc_80062D4
 0000:080062DA       loc_80062DA
 0000:080062E6       loc_80062E6
 0000:080062EA       def_8006290
 0000:080062EC       dmr_crypto_extract_bytes
 0000:0800630C       loc_800630C
 0000:08006310       loc_8006310
 0000:0800632E       loc_800632E
 0000:08006330       loc_8006330
 0000:0800633E       loc_800633E
 0000:08006350       loc_8006350
 0000:0800635C       loc_800635C
 0000:08006368       loc_8006368
 0000:0800636A       loc_800636A
 0000:08006372       veda_stream256_init
 0000:08006378       loc_8006378
 0000:0800640C       off_800640C
 0000:08006410       veda_stream256_apply_tweak64
 0000:0800642C       dmr_crypto_hash_finalize
 0000:0800642E       loc_800642E
 0000:0800644C       loc_800644C
 0000:08006464       dmr_x25519_basepoint_mul
 0000:0800646C       dword_800646C
 0000:08006470       dmr_kx_generate_keypair
 0000:0800647E       loc_800647E
 0000:08006484       veda_kx_npsk1_initiator
 0000:080064DE       loc_80064DE
 0000:080064FC       loc_80064FC
 0000:08006504       off_8006504
 0000:08006508       off_8006508
 0000:0800650C       dword_800650C
 0000:08006510       dmr_kx_init_context
 0000:08006538       off_8006538
 0000:0800653C       dmr_kx_mix_peer_key
 0000:08006552       loc_8006552
 0000:0800655E       loc_800655E
 0000:08006562       dmr_kx_initiator_finish
 0000:08006594       loc_8006594
 0000:080065C0       loc_80065C0
 0000:080065DA       loc_80065DA
 0000:080065EA       loc_80065EA
 0000:08006630       veda_kx_split
 0000:0800666C       off_800666C
 0000:08006670       veda_kx_npsk0_responder
 0000:080066CC       loc_80066CC
 0000:080066D0       loc_80066D0
 0000:080066D6       loc_80066D6
 0000:080066E8       off_80066E8
 0000:080066EC       off_80066EC
 0000:080066F0       dword_80066F0
 0000:080066F4       dmr_secretbox_decrypt_verify
 0000:08006740       loc_8006740
 0000:0800676A       loc_800676A
 0000:0800678A       loc_800678A
 0000:08006794       loc_8006794
 0000:080067BA       loc_80067BA
 0000:080067D8       loc_80067D8
 0000:080067DA       loc_80067DA
 0000:080067E0       dmr_kx_generate_public_key
 0000:080067EE       loc_80067EE
 0000:080067F4       dword_80067F4
 0000:080067F8       veda_auth_init_domain_ctx
 0000:08006804       veda_auth_absorb
 0000:080068BC       dword_80068BC
 0000:080068C0       dword_80068C0
 0000:080068C4       veda_auth_verify_montgomery_sig64
 0000:0800698C       off_800698C
 0000:08006990       off_8006990
 0000:08006994       veda_auth_build_challenge_scalar
 0000:080069D8       dword_80069D8
 0000:080069DC       off_80069DC
 0000:080069E0       veda_auth_verify_signed_block
 0000:08006A06       dmr_x25519_scalarmult
 0000:08006A24       loc_8006A24
 0000:08006A3E       loc_8006A3E
 0000:08006A46       loc_8006A46
 0000:08006A4C       loc_8006A4C
 0000:08006A76       dmr_crypto_xor_dispatch
 0000:08006A8C       loc_8006A8C
 0000:08006A96       dmr_crypto_xor_words
 0000:08006A98       loc_8006A98
 0000:08006AA6       locret_8006AA6
 0000:08006AA8       dmr_crypto_xor_bytes_raw
 0000:08006AAA       loc_8006AAA
 0000:08006ABE       locret_8006ABE
 0000:08006AC0       dmr_crypto_init_stream_state
 0000:08006B2C       off_8006B2C
 0000:08006B30       dmr_crypto_absorb_block32
 0000:08006B60       dmr_x25519_fe_muladd
 0000:08006B74       loc_8006B74
 0000:08006B88       loc_8006B88
 0000:08006BBA       loc_8006BBA
 0000:08006BBE       loc_8006BBE
 0000:08006BD4       loc_8006BD4
 0000:08006BDA       loc_8006BDA
 0000:08006BFC       loc_8006BFC
 0000:08006C06       loc_8006C06
 0000:08006C28       dword_8006C28
 0000:08006C2C       off_8006C2C
 0000:08006C30       dmr_curve25519_montgomery_ladder
 0000:08006C84       loc_8006C84
 0000:08006CA4       loc_8006CA4
 0000:08006CB2       loc_8006CB2
 0000:08006CF2       loc_8006CF2
 0000:08006D0A       loc_8006D0A
 0000:08006D18       off_8006D18
 0000:08006D1C       dmr_curve25519_cswap_state
 0000:08006D20       loc_8006D20
 0000:08006D48       dmr_curve25519_ladder_step
 0000:08006DD4       off_8006DD4
 0000:08006DD8       off_8006DD8
 0000:08006DDC       dword_8006DDC
 0000:08006DE0       dmr_curve25519_fe_add
 0000:08006DE8       loc_8006DE8
 0000:08006E08       loc_8006E08
 0000:08006E12       dmr_curve25519_fe_sub
 0000:08006E1E       loc_8006E1E
 0000:08006E40       loc_8006E40
 0000:08006E4A       dmr_x25519_fe_mul_full
 0000:08006E52       dmr_curve25519_fe_sq
 0000:08006E58       dmr_curve25519_fe_mul
 0000:08006E7A       loc_8006E7A
 0000:08006E86       loc_8006E86
 0000:08006EA4       loc_8006EA4
 0000:08006EB2       loc_8006EB2
 0000:08006EBA       loc_8006EBA
 0000:08006EDA       loc_8006EDA
 0000:08006EE6       dmr_x25519_fe_carry_reduce
 0000:08006EFE       loc_8006EFE
 0000:08006F16       dmr_curve25519_fe_iszero_mask
 0000:08006F20       loc_8006F20
 0000:08006F36       loc_8006F36
 0000:08006F48       loc_8006F48
 0000:08006F64       loc_8006F64
 0000:08006F6E       sub_8006F6E
 0000:08006F74       dmr_crypto_copy32
 0000:08006F7A       dmr_x25519_clamp_and_basepoint_mul
 0000:08006FA8       dmr_perm384_keystream_permute
 0000:08006FAE       dmr_crypto_copy16
 0000:08006FB4       sub_8006FB4
 0000:08006FC0       dmr_kx_responder_finish_16
 0000:08006FC8       sub_8006FC8
 0000:08006FCE       dmr_crypto_generate_keystream32
 0000:08006FDE       dmr_perm384_absorb_permute
 0000:08006FE4       sub_8006FE4
 0000:08006FF2       dmr_crypto_pad_byte
 0000:08006FFE       sub_8006FFE
 0000:08007006       dmr_crypto_permute_mode1
 0000:0800700E       loc_800700E
 0000:08007018       dmr_hw_get_random
 0000:08007044       loc_8007044
 0000:08007050       loc_8007050
 0000:08007062       locret_8007062
 0000:08007064       off_8007064
 0000:08007068       off_8007068
 0000:0800706C       sub_800706C
 0000:08007094       loc_8007094
 0000:080070BA       locret_80070BA
 0000:080070BC       off_80070BC
 0000:080070C0       loc_80070C0
 0000:080070D0       locret_80070D0
 0000:080070D4       off_80070D4
 0000:080070D8       dword_80070D8
 0000:080070DC       dword_80070DC
 0000:080070E0       sub_80070E0
 0000:080070F4       off_80070F4
 0000:080070F8       loc_80070F8
 0000:08007102       sub_8007102
 0000:0800710A       veda_memcpy32
 0000:08007110       loc_8007110
 0000:0800711E       sub_800711E
 0000:08007130       loc_8007130
 0000:0800713A       loc_800713A
 0000:0800713C       loc_800713C
 0000:0800714A       locret_800714A
 0000:0800714C       loc_800714C
 0000:0800714E       loc_800714E
 0000:0800715C       veda_runtime_service_descriptor
 0000:080071BC       dword_80071BC
 0000:080071C4       veda_prssentr_pub32
 0000:080071E4       unk_80071E4
 0000:080071F4       dword_80071F4
 0000:080071FA       veda_noise_default_peer_static_pub32
 0000:0800723C       veda_secure_crypto_ops
 0000:08007258       dmr_kx_handler_table
 0000:080072BC       veda_curve25519_basepoint_x9
 0000:080072DC       aHydroKx
 0000:080072E5       aPrssentr
 0000:080072EE       aNoiseNpsk0Hydr
 0000:08007304       dword_8007304
 0000:08007324       dword_8007324
 0000:08008000       dword_8008000
 0000:0800BF70       off_800BF70
 0000:0800BF78       dword_800BF78
 0000:0800BF7C       dword_800BF7C
 0000:0800BF80       dword_800BF80
 0000:0800BFE0       off_800BFE0
 0000:0800BFE4       dword_800BFE4
 0000:0800BFE8       dword_800BFE8
 0000:0800C000       dword_800C000
 0000:0800C004       dword_800C004
 0000:0800C008       dword_800C008
 0000:0800C188       dmr_radio_register_handlers
 0000:0800C1FA       loc_800C1FA
 0000:0800C206       loc_800C206
 0000:0800C2CE       loc_800C2CE
 0000:0800C2E4       loc_800C2E4
 0000:0800C2FA       loc_800C2FA
 0000:0800C32E       loc_800C32E
 0000:0800C360       loc_800C360
 0000:0800C376       loc_800C376
 0000:0800C38C       loc_800C38C
 0000:0800C3D0       loc_800C3D0
 0000:0800C404       loc_800C404
 0000:0800C436       loc_800C436
 0000:0800C536       loc_800C536
 0000:0800C5C8       loc_800C5C8
 0000:0800C5DE       loc_800C5DE
 0000:0800C5F4       loc_800C5F4
 0000:0800C628       loc_800C628
 0000:0800C65A       loc_800C65A
 0000:0800C670       loc_800C670
 0000:0800C686       loc_800C686
 0000:0800C6CA       loc_800C6CA
 0000:0800C6FE       loc_800C6FE
 0000:0800C72E       loc_800C72E
 0000:0800C7FC       loc_800C7FC
 0000:0800C8AA       loc_800C8AA
 0000:0800C8D2       loc_800C8D2
 0000:0800C99C       loc_800C99C
 0000:0800C99E       loc_800C99E
 0000:0800C9B4       locret_800C9B4
 0000:0800C9B6       sub_800C9B6
 0000:0800CA24       off_800CA24
 0000:0800CA28       off_800CA28
 0000:0800CA2C       off_800CA2C
 0000:0800CA30       off_800CA30
 0000:0800CA34       off_800CA34
 0000:0800CA38       off_800CA38
 0000:0800CA3C       off_800CA3C
 0000:0800CA40       off_800CA40
 0000:0800CA44       off_800CA44
 0000:0800CA48       off_800CA48
 0000:0800CA4C       off_800CA4C
 0000:0800CA50       off_800CA50
 0000:0800CA54       off_800CA54
 0000:0800CA58       off_800CA58
 0000:0800CA5C       off_800CA5C
 0000:0800CA60       off_800CA60
 0000:0800CA64       off_800CA64
 0000:0800CA68       off_800CA68
 0000:0800CA6C       off_800CA6C
 0000:0800CA70       off_800CA70
 0000:0800CA74       dword_800CA74
 0000:0800CA78       off_800CA78
 0000:0800CA7C       dword_800CA7C
 0000:0800CA80       off_800CA80
 0000:0800CA84       off_800CA84
 0000:0800CA88       off_800CA88
 0000:0800CA8C       dword_800CA8C
 0000:0800CA90       off_800CA90
 0000:0800CA94       dmr_radio_main_state_machine
 0000:0800CABE       loc_800CABE
 0000:0800CAC8       loc_800CAC8
 0000:0800CAE2       loc_800CAE2
 0000:0800CAFA       loc_800CAFA
 0000:0800CC4E       loc_800CC4E
 0000:0800CC58       loc_800CC58
 0000:0800CCA2       loc_800CCA2
 0000:0800CD74       loc_800CD74
 0000:0800CD78       loc_800CD78
 0000:0800CDE0       loc_800CDE0
 0000:0800CDEA       loc_800CDEA
 0000:0800CE22       loc_800CE22
 0000:0800CF46       loc_800CF46
 0000:0800D08E       loc_800D08E
 0000:0800D156       loc_800D156
 0000:0800D234       loc_800D234
 0000:0800D248       loc_800D248
 0000:0800D260       loc_800D260
 0000:0800D27C       loc_800D27C
 0000:0800D2BA       loc_800D2BA
 0000:0800D45A       loc_800D45A
 0000:0800D47C       loc_800D47C
 0000:0800D49E       loc_800D49E
 0000:0800D4BE       loc_800D4BE
 0000:0800D4D6       loc_800D4D6
 0000:0800D54E       loc_800D54E
 0000:0800D5E4       loc_800D5E4
 0000:0800D620       loc_800D620
 0000:0800D65E       loc_800D65E
 0000:0800D67A       loc_800D67A
 0000:0800D748       loc_800D748
 0000:0800D77E       loc_800D77E
 0000:0800D7B6       loc_800D7B6
 0000:0800D87A       loc_800D87A
 0000:0800D8AC       loc_800D8AC
 0000:0800D8E4       off_800D8E4
 0000:0800D8E8       off_800D8E8
 0000:0800D8EC       off_800D8EC
 0000:0800D8F0       off_800D8F0
 0000:0800D8F4       loc_800D8F4
 0000:0800D91C       loc_800D91C
 0000:0800D9F0       dword_800D9F0
 0000:0800D9F4       dword_800D9F4
 0000:0800D9F8       off_800D9F8
 0000:0800D9FC       off_800D9FC
 0000:0800DA00       off_800DA00
 0000:0800DA04       loc_800DA04
 0000:0800DACC       loc_800DACC
 0000:0800DAE6       loc_800DAE6
 0000:0800DAFA       loc_800DAFA
 0000:0800DB14       off_800DB14
 0000:0800DB18       loc_800DB18
 0000:0800DB3C       loc_800DB3C
 0000:0800DB48       off_800DB48
 0000:0800DB4C       off_800DB4C
 0000:0800DB50       dword_800DB50
 0000:0800DB54       off_800DB54
 0000:0800DB58       off_800DB58
 0000:0800DB5C       off_800DB5C
 0000:0800DB60       off_800DB60
 0000:0800DB64       off_800DB64
 0000:0800DB68       off_800DB68
 0000:0800DB6C       off_800DB6C
 0000:0800DB70       off_800DB70
 0000:0800DB74       off_800DB74
 0000:0800DB78       off_800DB78
 0000:0800DB7C       off_800DB7C
 0000:0800DB80       off_800DB80
 0000:0800DB84       off_800DB84
 0000:0800DB88       off_800DB88
 0000:0800DB8C       off_800DB8C
 0000:0800DB90       dword_800DB90
 0000:0800DB94       sub_800DB94
 0000:0800DBE8       loc_800DBE8
 0000:0800DD4E       loc_800DD4E
 0000:0800DD6A       loc_800DD6A
 0000:0800DD6E       loc_800DD6E
 0000:0800DDE8       loc_800DDE8
 0000:0800DE1C       loc_800DE1C
 0000:0800DE8C       loc_800DE8C
 0000:0800DE94       loc_800DE94
 0000:0800DE96       loc_800DE96
 0000:0800DEC8       loc_800DEC8
 0000:0800DF30       loc_800DF30
 0000:0800DF42       loc_800DF42
 0000:0800DF66       loc_800DF66
 0000:0800DFCC       loc_800DFCC
 0000:0800DFEC       loc_800DFEC
 0000:0800DFF2       loc_800DFF2
 0000:0800E00E       loc_800E00E
 0000:0800E02E       loc_800E02E
 0000:0800E034       loc_800E034
 0000:0800E048       loc_800E048
 0000:0800E08E       loc_800E08E
 0000:0800E096       loc_800E096
 0000:0800E09A       veda_ui_show_volume_screen
 0000:0800E0B6       loc_800E0B6
 0000:0800E0B8       loc_800E0B8
 0000:0800E1B2       loc_800E1B2
 0000:0800E1B4       loc_800E1B4
 0000:0800E1B8       loc_800E1B8
 0000:0800E1BC       veda_ui_create_volume_widgets
 0000:0800E26E       locret_800E26E
 0000:0800E270       nullsub_29
 0000:0800E272       veda_ui_select_volume_item
 0000:0800E282       loc_800E282
 0000:0800E288       loc_800E288
 0000:0800E2AE       loc_800E2AE
 0000:0800E322       sub_800E322
 0000:0800E38E       veda_ui_send_quad16_packet_a
 0000:0800E3E4       veda_ui_send_quad16_packet_b
 0000:0800E444       off_800E444
 0000:0800E448       veda_ui_send_quad16_packet_c
 0000:0800E4A8       off_800E4A8
 0000:0800E4AC       dword_800E4AC
 0000:0800E4B0       dword_800E4B0
 0000:0800E4B4       off_800E4B4
 0000:0800E4B8       off_800E4B8
 0000:0800E4BC       dmr_ui_render_status_bar
 0000:0800E536       loc_800E536
 0000:0800E57E       loc_800E57E
 0000:0800E60C       loc_800E60C
 0000:0800E630       loc_800E630
 0000:0800E64A       sub_800E64A
 0000:0800E65C       sub_800E65C
 0000:0800E688       loc_800E688
 0000:0800E690       loc_800E690
 0000:0800E6E2       veda_ui_reset_screen_state
 0000:0800E75C       off_800E75C
 0000:0800E760       off_800E760
 0000:0800E764       off_800E764
 0000:0800E768       off_800E768
 0000:0800E76C       off_800E76C
 0000:0800E770       off_800E770
 0000:0800E774       off_800E774
 0000:0800E778       off_800E778
 0000:0800E77C       sub_800E77C
 0000:0800E7DA       loc_800E7DA
 0000:0800E7F6       loc_800E7F6
 0000:0800E81E       loc_800E81E
 0000:0800E846       loc_800E846
 0000:0800E862       loc_800E862
 0000:0800E8FE       loc_800E8FE
 0000:0800E91C       loc_800E91C
 0000:0800E92A       locret_800E92A
 0000:0800E92C       off_800E92C
 0000:0800E930       dword_800E930
 0000:0800E934       dword_800E934
 0000:0800E938       off_800E938
 0000:0800E93C       sub_800E93C
 0000:0800EA1E       loc_800EA1E
 0000:0800EA28       dword_800EA28
 0000:0800EA2C       off_800EA2C
 0000:0800EA30       dword_800EA30
 0000:0800EA34       off_800EA34
 0000:0800EA38       off_800EA38
 0000:0800EA3C       off_800EA3C
 0000:0800EA40       off_800EA40
 0000:0800EA44       off_800EA44
 0000:0800EA48       off_800EA48
 0000:0800EA4C       sub_800EA4C
 0000:0800EB8E       sub_800EB8E
 0000:0800EBCC       loc_800EBCC
 0000:0800EBEC       loc_800EBEC
 0000:0800EBFC       loc_800EBFC
 0000:0800EC5C       loc_800EC5C
 0000:0800EC8A       loc_800EC8A
 0000:0800ECAA       loc_800ECAA
 0000:0800ECD8       loc_800ECD8
 0000:0800ECE2       loc_800ECE2
 0000:0800ED0A       loc_800ED0A
 0000:0800ED14       loc_800ED14
 0000:0800ED32       loc_800ED32
 0000:0800ED50       loc_800ED50
 0000:0800ED5C       loc_800ED5C
 0000:0800EDA8       loc_800EDA8
 0000:0800EDB2       loc_800EDB2
 0000:0800EDDA       loc_800EDDA
 0000:0800EDE4       loc_800EDE4
 0000:0800EE12       loc_800EE12
 0000:0800EE1C       loc_800EE1C
 0000:0800EE44       loc_800EE44
 0000:0800EE4C       loc_800EE4C
 0000:0800EE58       off_800EE58
 0000:0800EE5C       off_800EE5C
 0000:0800EE60       sub_800EE60
 0000:0800EE8E       loc_800EE8E
 0000:0800EE9C       loc_800EE9C
 0000:0800EEC2       loc_800EEC2
 0000:0800EED0       loc_800EED0
 0000:0800EEEC       loc_800EEEC
 0000:0800EEF8       loc_800EEF8
 0000:0800EF34       loc_800EF34
 0000:0800EF42       loc_800EF42
 0000:0800EF4E       loc_800EF4E
 0000:0800EF56       loc_800EF56
 0000:0800EF82       loc_800EF82
 0000:0800EF90       loc_800EF90
 0000:0800EFB6       loc_800EFB6
 0000:0800EFC4       loc_800EFC4
 0000:0800EFE0       loc_800EFE0
 0000:0800EFEC       locret_800EFEC
 0000:0800EFF0       dword_800EFF0
 0000:0800EFF4       off_800EFF4
 0000:0800EFF8       off_800EFF8
 0000:0800EFFC       off_800EFFC
 0000:0800F000       off_800F000
 0000:0800F004       off_800F004
 0000:0800F008       sub_800F008
 0000:0800F02A       loc_800F02A
 0000:0800F030       loc_800F030
 0000:0800F066       loc_800F066
 0000:0800F09C       loc_800F09C
 0000:0800F0D2       loc_800F0D2
 0000:0800F108       loc_800F108
 0000:0800F13E       loc_800F13E
 0000:0800F174       loc_800F174
 0000:0800F1AA       loc_800F1AA
 0000:0800F1E0       loc_800F1E0
 0000:0800F216       loc_800F216
 0000:0800F230       loc_800F230
 0000:0800F24A       loc_800F24A
 0000:0800F266       loc_800F266
 0000:0800F280       locret_800F280
 0000:0800F284       off_800F284
 0000:0800F288       off_800F288
 0000:0800F28C       off_800F28C
 0000:0800F290       off_800F290
 0000:0800F294       off_800F294
 0000:0800F298       off_800F298
 0000:0800F29C       off_800F29C
 0000:0800F2A0       off_800F2A0
 0000:0800F2A4       off_800F2A4
 0000:0800F2A8       off_800F2A8
 0000:0800F2AC       off_800F2AC
 0000:0800F2B0       off_800F2B0
 0000:0800F2B4       off_800F2B4
 0000:0800F2B8       off_800F2B8
 0000:0800F2BC       sub_800F2BC
 0000:0800F328       loc_800F328
 0000:0800F340       loc_800F340
 0000:0800F34E       loc_800F34E
 0000:0800F35C       loc_800F35C
 0000:0800F386       loc_800F386
 0000:0800F39E       loc_800F39E
 0000:0800F3AC       loc_800F3AC
 0000:0800F3C6       loc_800F3C6
 0000:0800F408       loc_800F408
 0000:0800F420       loc_800F420
 0000:0800F42E       loc_800F42E
 0000:0800F43C       loc_800F43C
 0000:0800F466       loc_800F466
 0000:0800F47E       loc_800F47E
 0000:0800F48C       loc_800F48C
 0000:0800F4A8       loc_800F4A8
 0000:0800F4E2       loc_800F4E2
 0000:0800F4FA       loc_800F4FA
 0000:0800F508       loc_800F508
 0000:0800F516       loc_800F516
 0000:0800F538       loc_800F538
 0000:0800F550       loc_800F550
 0000:0800F55E       loc_800F55E
 0000:0800F578       loc_800F578
 0000:0800F592       loc_800F592
 0000:0800F5A0       loc_800F5A0
 0000:0800F5D4       loc_800F5D4
 0000:0800F5E2       loc_800F5E2
 0000:0800F5EE       loc_800F5EE
 0000:0800F5F4       loc_800F5F4
 0000:0800F604       locret_800F604
 0000:0800F608       off_800F608
 0000:0800F60C       off_800F60C
 0000:0800F610       off_800F610
 0000:0800F614       off_800F614
 0000:0800F618       off_800F618
 0000:0800F61C       off_800F61C
 0000:0800F620       off_800F620
 0000:0800F624       off_800F624
 0000:0800F628       off_800F628
 0000:0800F62C       off_800F62C
 0000:0800F630       off_800F630
 0000:0800F634       dword_800F634
 0000:0800F638       dword_800F638
 0000:0800F63C       off_800F63C
 0000:0800F640       dword_800F640
 0000:0800F644       sub_800F644
 0000:0800F6B4       loc_800F6B4
 0000:0800F6D4       loc_800F6D4
 0000:0800F6E4       loc_800F6E4
 0000:0800F722       loc_800F722
 0000:0800F734       loc_800F734
 0000:0800F78C       loc_800F78C
 0000:0800F7A0       loc_800F7A0
 0000:0800F7D0       loc_800F7D0
 0000:0800F810       loc_800F810
 0000:0800F824       loc_800F824
 0000:0800F82E       loc_800F82E
 0000:0800F86E       loc_800F86E
 0000:0800F878       loc_800F878
 0000:0800F88A       loc_800F88A
 0000:0800F8E6       loc_800F8E6
 0000:0800F8FA       loc_800F8FA
 0000:0800F906       loc_800F906
 0000:0800F946       loc_800F946
 0000:0800F950       loc_800F950
 0000:0800F964       loc_800F964
 0000:0800F9A8       loc_800F9A8
 0000:0800F9BC       loc_800F9BC
 0000:0800F9C8       loc_800F9C8
 0000:0800FA08       loc_800FA08
 0000:0800FA12       loc_800FA12
 0000:0800FA26       loc_800FA26
 0000:0800FA7C       loc_800FA7C
 0000:0800FAB4       loc_800FAB4
 0000:0800FB20       loc_800FB20
 0000:0800FB5A       loc_800FB5A
 0000:0800FB90       loc_800FB90
 0000:0800FBC4       loc_800FBC4
 0000:0800FBD8       loc_800FBD8
 0000:0800FBE2       loc_800FBE2
 0000:0800FC22       loc_800FC22
 0000:0800FC2A       loc_800FC2A
 0000:0800FC40       off_800FC40
 0000:0800FC44       off_800FC44
 0000:0800FC48       veda_ui_apply_status_source_a
 0000:0800FC5E       veda_ui_apply_status_source_b
 0000:0800FC74       dword_800FC74
 0000:0800FC78       dword_800FC78
 0000:0800FC7C       dword_800FC7C
 0000:0800FC80       off_800FC80
 0000:0800FC84       off_800FC84
 0000:0800FC88       off_800FC88
 0000:0800FC8C       dword_800FC8C
 0000:0800FC90       dword_800FC90
 0000:0800FC94       dword_800FC94
 0000:0800FC98       veda_ui_redraw_status_panel
 0000:0800FCC8       loc_800FCC8
 0000:0800FD3C       loc_800FD3C
 0000:0800FD5E       loc_800FD5E
 0000:0800FD94       loc_800FD94
 0000:0800FDD6       loc_800FDD6
 0000:0800FDDA       loc_800FDDA
 0000:0800FDFA       loc_800FDFA
 0000:0800FE1E       loc_800FE1E
 0000:0800FFBA       loc_800FFBA
 0000:0800FFFE       loc_800FFFE
 0000:0801006C       loc_801006C
 0000:080100A8       loc_80100A8
 0000:080100AE       loc_80100AE
 0000:080100C0       off_80100C0
 0000:080100C4       off_80100C4
 0000:080100C8       dword_80100C8
 0000:080100CC       off_80100CC
 0000:080100D0       off_80100D0
 0000:080100D4       off_80100D4
 0000:080100D8       off_80100D8
 0000:080100DC       off_80100DC
 0000:080100E0       off_80100E0
 0000:080100E4       off_80100E4
 0000:080100E8       off_80100E8
 0000:080100EC       off_80100EC
 0000:080100F0       off_80100F0
 0000:080100F4       off_80100F4
 0000:080100F8       off_80100F8
 0000:080100FC       off_80100FC
 0000:08010100       off_8010100
 0000:08010104       off_8010104
 0000:08010108       off_8010108
 0000:0801010C       off_801010C
 0000:08010110       off_8010110
 0000:08010114       off_8010114
 0000:08010118       off_8010118
 0000:0801011C       off_801011C
 0000:08010120       off_8010120
 0000:08010124       off_8010124
 0000:08010128       off_8010128
 0000:0801012C       off_801012C
 0000:08010130       off_8010130
 0000:08010134       off_8010134
 0000:08010138       veda_ui_refresh_panel_state
 0000:08010154       loc_8010154
 0000:08010156       loc_8010156
 0000:08010188       loc_8010188
 0000:080101E8       loc_80101E8
 0000:08010240       loc_8010240
 0000:08010246       loc_8010246
 0000:08010266       loc_8010266
 0000:08010272       loc_8010272
 0000:08010298       loc_8010298
 0000:080102B4       loc_80102B4
 0000:0801033A       loc_801033A
 0000:08010352       loc_8010352
 0000:080104E4       loc_80104E4
 0000:080104FC       loc_80104FC
 0000:080105D8       loc_80105D8
 0000:080105F2       loc_80105F2
 0000:08010636       loc_8010636
 0000:08010640       loc_8010640
 0000:080106CA       loc_80106CA
 0000:08010724       loc_8010724
 0000:08010726       loc_8010726
 0000:080107A0       loc_80107A0
 0000:080107B4       loc_80107B4
 0000:08010886       loc_8010886
 0000:0801089A       loc_801089A
 0000:080108DE       loc_80108DE
 0000:080108E6       loc_80108E6
 0000:0801090E       loc_801090E
 0000:08010914       loc_8010914
 0000:0801092A       loc_801092A
 0000:0801093E       loc_801093E
 0000:0801094A       locret_801094A
 0000:08010950       off_8010950
 0000:08010954       off_8010954
 0000:08010958       off_8010958
 0000:0801095C       off_801095C
 0000:08010960       off_8010960
 0000:08010964       off_8010964
 0000:08010968       off_8010968
 0000:0801096C       off_801096C
 0000:08010970       off_8010970
 0000:08010974       off_8010974
 0000:08010978       off_8010978
 0000:0801097C       off_801097C
 0000:08010980       off_8010980
 0000:08010984       off_8010984
 0000:08010988       off_8010988
 0000:0801098C       off_801098C
 0000:08010990       off_8010990
 0000:08010994       off_8010994
 0000:08010998       off_8010998
 0000:0801099C       dword_801099C
 0000:080109A0       dword_80109A0
 0000:080109A4       off_80109A4
 0000:080109A8       off_80109A8
 0000:080109AC       off_80109AC
 0000:080109B0       off_80109B0
 0000:080109B4       off_80109B4
 0000:080109B8       sub_80109B8
 0000:080109F6       loc_80109F6
 0000:080109F8       loc_80109F8
 0000:08010A2C       loc_8010A2C
 0000:08010A4C       loc_8010A4C
 0000:08010AEE       loc_8010AEE
 0000:08010AF0       loc_8010AF0
 0000:08010B0A       loc_8010B0A
 0000:08010BBC       loc_8010BBC
 0000:08010BE6       loc_8010BE6
 0000:08010BE8       loc_8010BE8
 0000:08010C72       loc_8010C72
 0000:08010CAE       loc_8010CAE
 0000:08010D34       loc_8010D34
 0000:08010D90       loc_8010D90
 0000:08010E86       loc_8010E86
 0000:08010F16       loc_8010F16
 0000:08010F20       loc_8010F20
 0000:08010F24       loc_8010F24
 0000:08010F32       loc_8010F32
 0000:08010F38       off_8010F38
 0000:08010F3C       off_8010F3C
 0000:08010F40       off_8010F40
 0000:08010F44       off_8010F44
 0000:08010F48       off_8010F48
 0000:08010F4C       off_8010F4C
 0000:08010F50       off_8010F50
 0000:08010F54       sub_8010F54
 0000:08010F92       loc_8010F92
 0000:08010F94       loc_8010F94
 0000:08010FC8       loc_8010FC8
 0000:08010FE8       loc_8010FE8
 0000:0801108A       loc_801108A
 0000:0801108C       loc_801108C
 0000:080110B0       loc_80110B0
 0000:08011148       loc_8011148
 0000:0801119A       loc_801119A
 0000:0801121E       loc_801121E
 0000:08011246       loc_8011246
 0000:0801128A       loc_801128A
 0000:08011354       loc_8011354
 0000:080113B4       loc_80113B4
 0000:080113C0       loc_80113C0
 0000:080113C4       loc_80113C4
 0000:080113D0       loc_80113D0
 0000:080113D4       off_80113D4
 0000:080113D8       off_80113D8
 0000:080113DC       off_80113DC
 0000:080113E0       off_80113E0
 0000:080113E4       off_80113E4
 0000:080113E8       off_80113E8
 0000:080113EC       off_80113EC
 0000:080113F0       off_80113F0
 0000:080113F4       off_80113F4
 0000:080113F8       off_80113F8
 0000:080113FC       off_80113FC
 0000:08011400       off_8011400
 0000:08011404       off_8011404
 0000:08011408       off_8011408
 0000:0801140C       off_801140C
 0000:08011410       off_8011410
 0000:08011414       off_8011414
 0000:08011418       off_8011418
 0000:0801141C       dword_801141C
 0000:08011420       off_8011420
 0000:08011424       sub_8011424
 0000:0801144E       loc_801144E
 0000:08011450       loc_8011450
 0000:08011488       loc_8011488
 0000:0801148A       loc_801148A
 0000:080114A0       loc_80114A0
 0000:08011516       loc_8011516
 0000:08011546       loc_8011546
 0000:0801156C       loc_801156C
 0000:080115BA       loc_80115BA
 0000:080115DC       loc_80115DC
 0000:08011622       loc_8011622
 0000:08011652       loc_8011652
 0000:08011676       loc_8011676
 0000:080117E4       loc_80117E4
 0000:080117F4       loc_80117F4
 0000:08011878       loc_8011878
 0000:080118A6       loc_80118A6
 0000:080118AC       loc_80118AC
 0000:0801194A       loc_801194A
 0000:0801197C       loc_801197C
 0000:0801197E       loc_801197E
 0000:08011A08       loc_8011A08
 0000:08011AE8       loc_8011AE8
 0000:08011AFC       loc_8011AFC
 0000:08011B16       loc_8011B16
 0000:08011B30       loc_8011B30
 0000:08011B36       sub_8011B36
 0000:08011B46       loc_8011B46
 0000:08011B68       loc_8011B68
 0000:08011B6E       sub_8011B6E
 0000:08011B80       dmr_radio_mode_handler
 0000:08011BA2       loc_8011BA2
 0000:08011BC8       loc_8011BC8
 0000:08011BEE       loc_8011BEE
 0000:08011BF4       loc_8011BF4
 0000:08011BF8       locret_8011BF8
 0000:08011BFC       off_8011BFC
 0000:08011C00       sub_8011C00
 0000:08011C9E       loc_8011C9E
 0000:08011CA2       loc_8011CA2
 0000:08011CEA       loc_8011CEA
 0000:08011CEE       loc_8011CEE
 0000:08011D56       loc_8011D56
 0000:08011D76       locret_8011D76
 0000:08011D78       sub_8011D78
 0000:08011DD6       loc_8011DD6
 0000:08011DF2       locret_8011DF2
 0000:08011DF4       off_8011DF4
 0000:08011DF8       sub_8011DF8
 0000:08011E7C       loc_8011E7C
 0000:08011EC2       loc_8011EC2
 0000:08011EC4       loc_8011EC4
 0000:08011EE2       locret_8011EE2
 0000:08011EE4       off_8011EE4
 0000:08011EE8       off_8011EE8
 0000:08011EEC       off_8011EEC
 0000:08011EF0       off_8011EF0
 0000:08011EF4       sub_8011EF4
 0000:08011F2A       loc_8011F2A
 0000:08011F62       loc_8011F62
 0000:08011FA8       loc_8011FA8
 0000:08011FAC       loc_8011FAC
 0000:08011FB6       loc_8011FB6
 0000:08012000       loc_8012000
 0000:08012004       loc_8012004
 0000:08012008       loc_8012008
 0000:08012056       loc_8012056
 0000:0801205A       loc_801205A
 0000:08012070       loc_8012070
 0000:08012074       loc_8012074
 0000:0801209C       loc_801209C
 0000:080120A0       loc_80120A0
 0000:080120C0       loc_80120C0
 0000:080120E8       off_80120E8
 0000:080120EC       off_80120EC
 0000:080120F0       off_80120F0
 0000:080120FA       loc_80120FA
 0000:0801210A       loc_801210A
 0000:0801214A       loc_801214A
 0000:0801214E       loc_801214E
 0000:08012152       loc_8012152
 0000:08012156       sub_8012156
 0000:080121DC       loc_80121DC
 0000:08012226       loc_8012226
 0000:08012228       loc_8012228
 0000:08012248       locret_8012248
 0000:0801224A       sub_801224A
 0000:08012282       loc_8012282
 0000:080122DC       off_80122DC
 0000:080122E0       off_80122E0
 0000:080122E4       off_80122E4
 0000:080122E8       off_80122E8
 0000:080122EC       off_80122EC
 0000:080122F0       sub_80122F0
 0000:0801230C       loc_801230C
 0000:0801232C       loc_801232C
 0000:08012360       loc_8012360
 0000:080124F0       loc_80124F0
 0000:0801250E       locret_801250E
 0000:0801252A       loc_801252A
 0000:0801253A       loc_801253A
 0000:0801254A       loc_801254A
 0000:08012552       locret_8012552
 0000:08012554       sub_8012554
 0000:0801255E       sub_801255E
 0000:080125CE       sub_80125CE
 0000:080125F0       off_80125F0
 0000:080125F4       off_80125F4
 0000:080125F8       off_80125F8
 0000:080125FC       off_80125FC
 0000:08012600       sub_8012600
 0000:0801269A       loc_801269A
 0000:080126A2       loc_80126A2
 0000:080126B4       loc_80126B4
 0000:080126D0       loc_80126D0
 0000:080126EE       locret_80126EE
 0000:080126F4       off_80126F4
 0000:080126F8       off_80126F8
 0000:080126FC       off_80126FC
 0000:08012700       off_8012700
 0000:08012704       off_8012704
 0000:08012708       off_8012708
 0000:0801270C       sub_801270C
 0000:080127A8       loc_80127A8
 0000:080127C4       loc_80127C4
 0000:080127E2       locret_80127E2
 0000:080127E8       off_80127E8
 0000:080127EC       off_80127EC
 0000:080127F0       off_80127F0
 0000:080127F4       off_80127F4
 0000:080127F8       off_80127F8
 0000:080127FC       sub_80127FC
 0000:08012868       off_8012868
 0000:0801286C       sub_801286C
 0000:080128BA       loc_80128BA
 0000:080128C4       loc_80128C4
 0000:080128E2       loc_80128E2
 0000:080128EC       loc_80128EC
 0000:0801290A       loc_801290A
 0000:08012914       loc_8012914
 0000:0801291C       off_801291C
 0000:08012920       off_8012920
 0000:08012924       off_8012924
 0000:08012928       sub_8012928
 0000:08012994       off_8012994
 0000:08012998       off_8012998
 0000:0801299C       dword_801299C
 0000:080129A0       sub_80129A0
 0000:080129DA       loc_80129DA
 0000:080129E4       loc_80129E4
 0000:08012A02       loc_8012A02
 0000:08012A0C       loc_8012A0C
 0000:08012A2A       loc_8012A2A
 0000:08012A34       loc_8012A34
 0000:08012A3C       off_8012A3C
 0000:08012A40       sub_8012A40
 0000:08012AC4       loc_8012AC4
 0000:08012AF0       locret_8012AF0
 0000:08012AF4       off_8012AF4
 0000:08012AF8       off_8012AF8
 0000:08012AFC       off_8012AFC
 0000:08012B00       off_8012B00
 0000:08012B04       off_8012B04
 0000:08012B08       off_8012B08
 0000:08012B0C       off_8012B0C
 0000:08012B10       sub_8012B10
 0000:08012BB0       off_8012BB0
 0000:08012BB4       off_8012BB4
 0000:08012BB8       off_8012BB8
 0000:08012BBC       sub_8012BBC
 0000:08012C28       off_8012C28
 0000:08012C2C       off_8012C2C
 0000:08012C30       off_8012C30
 0000:08012C34       off_8012C34
 0000:08012C38       sub_8012C38
 0000:08012C9A       loc_8012C9A
 0000:08012CD4       loc_8012CD4
 0000:08012D06       loc_8012D06
 0000:08012D36       loc_8012D36
 0000:08012D44       loc_8012D44
 0000:08012D5C       off_8012D5C
 0000:08012D60       off_8012D60
 0000:08012D64       off_8012D64
 0000:08012D68       off_8012D68
 0000:08012D6C       off_8012D6C
 0000:08012D70       nullsub_30
 0000:08012D72       dmr_ui_format_contact_info
 0000:08012D9E       loc_8012D9E
 0000:08012DD4       loc_8012DD4
 0000:08012E0C       off_8012E0C
 0000:08012E10       off_8012E10
 0000:08012E14       off_8012E14
 0000:08012E18       off_8012E18
 0000:08012E1C       sub_8012E1C
 0000:08012E40       loc_8012E40
 0000:08012E64       loc_8012E64
 0000:08012E9C       off_8012E9C
 0000:08012EA0       sub_8012EA0
 0000:08012EE6       loc_8012EE6
 0000:08012F36       loc_8012F36
 0000:08012F4A       locret_8012F4A
 0000:08012F4C       off_8012F4C
 0000:08012F50       off_8012F50
 0000:08012F54       off_8012F54
 0000:08012F58       sub_8012F58
 0000:08012F84       off_8012F84
 0000:08012F88       off_8012F88
 0000:08012F8C       off_8012F8C
 0000:08012F90       off_8012F90
 0000:08012F94       off_8012F94
 0000:08012F98       dword_8012F98
 0000:08012F9C       off_8012F9C
 0000:08012FA0       off_8012FA0
 0000:08012FA4       off_8012FA4
 0000:08012FA8       off_8012FA8
 0000:08012FAC       off_8012FAC
 0000:08012FB0       off_8012FB0
 0000:08012FB4       off_8012FB4
 0000:08012FB8       sub_8012FB8
 0000:0801301E       loc_801301E
 0000:08013038       loc_8013038
 0000:0801303C       loc_801303C
 0000:0801304C       loc_801304C
 0000:080130C2       loc_80130C2
 0000:080130C6       loc_80130C6
 0000:08013170       loc_8013170
 0000:08013174       loc_8013174
 0000:080131BE       loc_80131BE
 0000:080131F2       loc_80131F2
 0000:08013224       loc_8013224
 0000:0801323A       loc_801323A
 0000:0801323E       loc_801323E
 0000:0801324E       loc_801324E
 0000:08013296       loc_8013296
 0000:0801329A       loc_801329A
 0000:080132AA       loc_80132AA
 0000:080132F2       loc_80132F2
 0000:080132F6       loc_80132F6
 0000:08013306       loc_8013306
 0000:0801334E       loc_801334E
 0000:08013352       loc_8013352
 0000:08013362       loc_8013362
 0000:080133CA       loc_80133CA
 0000:080133EA       loc_80133EA
 0000:08013406       loc_8013406
 0000:0801343A       loc_801343A
 0000:0801345A       loc_801345A
 0000:080134A0       loc_80134A0
 0000:080134A4       loc_80134A4
 0000:080134FE       loc_80134FE
 0000:08013502       loc_8013502
 0000:0801354C       loc_801354C
 0000:08013550       loc_8013550
 0000:080135B6       loc_80135B6
 0000:080135D6       loc_80135D6
 0000:080135DC       off_80135DC
 0000:080135E0       sub_80135E0
 0000:080135E6       loc_80135E6
 0000:08013600       loc_8013600
 0000:08013688       off_8013688
 0000:0801368C       sub_801368C
 0000:08013692       loc_8013692
 0000:080136AC       loc_80136AC
 0000:08013738       off_8013738
 0000:0801373C       off_801373C
 0000:08013740       sub_8013740
 0000:080137D0       loc_80137D0
 0000:08013860       loc_8013860
 0000:0801386C       off_801386C
 0000:08013870       off_8013870
 0000:08013874       off_8013874
 0000:08013878       off_8013878
 0000:0801387C       off_801387C
 0000:08013880       off_8013880
 0000:08013884       off_8013884
 0000:08013888       sub_8013888
 0000:080138A0       loc_80138A0
 0000:080138A6       loc_80138A6
 0000:080139CE       loc_80139CE
 0000:080139D4       loc_80139D4
 0000:08013B14       off_8013B14
 0000:08013B18       off_8013B18
 0000:08013B1C       off_8013B1C
 0000:08013B20       off_8013B20
 0000:08013B24       off_8013B24
 0000:08013B28       off_8013B28
 0000:08013B2C       sub_8013B2C
 0000:08013B6C       loc_8013B6C
 0000:08013B9E       loc_8013B9E
 0000:08013BB8       loc_8013BB8
 0000:08013BFA       loc_8013BFA
 0000:08013C10       loc_8013C10
 0000:08013C3C       loc_8013C3C
 0000:08013C48       loc_8013C48
 0000:08013C4C       locret_8013C4C
 0000:08013C50       off_8013C50
 0000:08013C54       off_8013C54
 0000:08013C58       off_8013C58
 0000:08013C5C       off_8013C5C
 0000:08013C60       off_8013C60
 0000:08013C64       off_8013C64
 0000:08013C68       off_8013C68
 0000:08013C6C       sub_8013C6C
 0000:08013C8E       loc_8013C8E
 0000:08013CD2       loc_8013CD2
 0000:08013CEC       loc_8013CEC
 0000:08013CFE       loc_8013CFE
 0000:08013D02       loc_8013D02
 0000:08013D06       loc_8013D06
 0000:08013D08       loc_8013D08
 0000:08013D0C       off_8013D0C
 0000:08013D10       dword_8013D10
 0000:08013D14       off_8013D14
 0000:08013D18       off_8013D18
 0000:08013D1C       off_8013D1C
 0000:08013D42       loc_8013D42
 0000:08013D94       loc_8013D94
 0000:08013DBA       loc_8013DBA
 0000:08013DCC       loc_8013DCC
 0000:08013DD0       loc_8013DD0
 0000:08013DD4       loc_8013DD4
 0000:08013DD6       loc_8013DD6
 0000:08013DDC       off_8013DDC
 0000:08013DE0       veda_ui_format_contact_label
 0000:08013E0E       loc_8013E0E
 0000:08013E38       loc_8013E38
 0000:08013E70       off_8013E70
 0000:08013E74       off_8013E74
 0000:08013E78       sub_8013E78
 0000:08013EEC       dmr_ui_update_privacy_type
 0000:08013F08       loc_8013F08
 0000:08013F12       loc_8013F12
 0000:08013F2A       loc_8013F2A
 0000:08013F42       loc_8013F42
 0000:08013F4A       locret_8013F4A
 0000:08013F4C       off_8013F4C
 0000:08013F50       sub_8013F50
 0000:08013FB4       off_8013FB4
 0000:08013FB8       off_8013FB8
 0000:08013FBC       off_8013FBC
 0000:08013FC0       off_8013FC0
 0000:08013FC4       off_8013FC4
 0000:08013FC8       sub_8013FC8
 0000:08013FF6       loc_8013FF6
 0000:0801400E       loc_801400E
 0000:08014028       loc_8014028
 0000:0801406C       loc_801406C
 0000:0801409C       loc_801409C
 0000:080140A2       loc_80140A2
 0000:080140E2       loc_80140E2
 0000:0801410A       locret_801410A
 0000:0801410C       off_801410C
 0000:08014110       off_8014110
 0000:08014114       sub_8014114
 0000:08014178       loc_8014178
 0000:08014194       loc_8014194
 0000:08014198       loc_8014198
 0000:080141BC       loc_80141BC
 0000:080141C0       locret_80141C0
 0000:080141C4       off_80141C4
 0000:080141C8       off_80141C8
 0000:080141CC       off_80141CC
 0000:080141D0       off_80141D0
 0000:080141D4       off_80141D4
 0000:080141D8       off_80141D8
 0000:080141DC       off_80141DC
 0000:080141E0       sub_80141E0
 0000:08014254       loc_8014254
 0000:0801427E       loc_801427E
 0000:080142C2       loc_80142C2
 0000:080142E0       loc_80142E0
 0000:080142EA       loc_80142EA
 0000:08014330       loc_8014330
 0000:08014364       locret_8014364
 0000:08014368       off_8014368
 0000:0801436C       sub_801436C
 0000:080143BA       loc_80143BA
 0000:08014430       loc_8014430
 0000:08014490       loc_8014490
 0000:08014494       loc_8014494
 0000:080144D0       loc_80144D0
 0000:080144DA       loc_80144DA
 0000:0801455A       loc_801455A
 0000:08014576       loc_8014576
 0000:08014578       loc_8014578
 0000:0801457C       loc_801457C
 0000:080145D8       locret_80145D8
 0000:080145DC       dword_80145DC
 0000:080145E0       off_80145E0
 0000:080145E4       sub_80145E4
 0000:08014654       loc_8014654
 0000:0801467E       loc_801467E
 0000:08014682       loc_8014682
 0000:08014688       off_8014688
 0000:0801468C       off_801468C
 0000:08014690       off_8014690
 0000:08014694       dword_8014694
 0000:08014698       sub_8014698
 0000:08014750       loc_8014750
 0000:0801476C       locret_801476C
 0000:0801476E       sub_801476E
 0000:08014780       sub_8014780
 0000:08014810       off_8014810
 0000:08014814       sub_8014814
 0000:0801482C       loc_801482C
 0000:08014844       loc_8014844
 0000:080148D0       off_80148D0
 0000:080148D4       off_80148D4
 0000:080148D8       off_80148D8
 0000:080148DC       sub_80148DC
 0000:0801495A       loc_801495A
 0000:080149C2       locret_80149C2
 0000:080149C4       off_80149C4
 0000:080149C8       off_80149C8
 0000:080149CC       off_80149CC
 0000:080149D0       sub_80149D0
 0000:08014A06       loc_8014A06
 0000:08014A2A       loc_8014A2A
 0000:08014A2E       loc_8014A2E
 0000:08014A62       loc_8014A62
 0000:08014A8C       loc_8014A8C
 0000:08014A92       loc_8014A92
 0000:08014AAC       off_8014AAC
 0000:08014AB0       off_8014AB0
 0000:08014AB4       off_8014AB4
 0000:08014AB8       sub_8014AB8
 0000:08014AD0       loc_8014AD0
 0000:08014AE8       loc_8014AE8
 0000:08014B7C       off_8014B7C
 0000:08014B80       off_8014B80
 0000:08014B84       off_8014B84
 0000:08014B88       off_8014B88
 0000:08014B8C       off_8014B8C
 0000:08014B90       off_8014B90
 0000:08014B94       off_8014B94
 0000:08014B98       sub_8014B98
 0000:08014BFE       loc_8014BFE
 0000:08014C2A       loc_8014C2A
 0000:08014C2E       loc_8014C2E
 0000:08014C4C       loc_8014C4C
 0000:08014C6A       loc_8014C6A
 0000:08014C7E       loc_8014C7E
 0000:08014CCE       loc_8014CCE
 0000:08014CFA       loc_8014CFA
 0000:08014D52       locret_8014D52
 0000:08014D56       sub_8014D56
 0000:08014D5C       loc_8014D5C
 0000:08014D6E       loc_8014D6E
 0000:08014DC4       off_8014DC4
 0000:08014DC8       sub_8014DC8
 0000:08014DCE       loc_8014DCE
 0000:08014DE8       loc_8014DE8
 0000:08014E64       off_8014E64
 0000:08014E68       off_8014E68
 0000:08014E6C       off_8014E6C
 0000:08014E70       sub_8014E70
 0000:08014F0E       loc_8014F0E
 0000:08014F3C       locret_8014F3C
 0000:08014F40       off_8014F40
 0000:08014F44       off_8014F44
 0000:08014F48       sub_8014F48
 0000:08014F4E       loc_8014F4E
 0000:08014F68       loc_8014F68
 0000:08014FE0       off_8014FE0
 0000:08014FE4       sub_8014FE4
 0000:08015082       loc_8015082
 0000:080150B2       locret_80150B2
 0000:080150B4       off_80150B4
 0000:080150B8       sub_80150B8
 0000:080150BE       loc_80150BE
 0000:080150D6       loc_80150D6
 0000:08015152       sub_8015152
 0000:080151E8       loc_80151E8
 0000:08015214       locret_8015214
 0000:08015218       off_8015218
 0000:0801521C       off_801521C
 0000:08015220       off_8015220
 0000:08015224       off_8015224
 0000:08015228       off_8015228
 0000:0801522C       off_801522C
 0000:08015230       off_8015230
 0000:08015234       off_8015234
 0000:08015238       sub_8015238
 0000:0801523E       loc_801523E
 0000:08015256       loc_8015256
 0000:080152CC       off_80152CC
 0000:080152D0       off_80152D0
 0000:080152D4       off_80152D4
 0000:080152D8       off_80152D8
 0000:080152DC       sub_80152DC
 0000:0801536E       loc_801536E
 0000:0801539A       locret_801539A
 0000:0801539C       off_801539C
 0000:080153A0       off_80153A0
 0000:080153A4       sub_80153A4
 0000:080153AA       loc_80153AA
 0000:080153C2       loc_80153C2
 0000:08015436       sub_8015436
 0000:080154C8       loc_80154C8
 0000:080154F0       locret_80154F0
 0000:080154F4       off_80154F4
 0000:080154F8       off_80154F8
 0000:080154FC       off_80154FC
 0000:08015500       off_8015500
 0000:08015504       sub_8015504
 0000:08015590       off_8015590
 0000:08015594       sub_8015594
 0000:0801562C       dword_801562C
 0000:08015630       off_8015630
 0000:08015634       sub_8015634
 0000:080156EE       loc_80156EE
 0000:08015720       loc_8015720
 0000:08015722       loc_8015722
 0000:08015742       locret_8015742
 0000:08015744       off_8015744
 0000:08015748       off_8015748
 0000:0801574C       off_801574C
 0000:08015750       sub_8015750
 0000:080157A0       loc_80157A0
 0000:080157DA       loc_80157DA
 0000:080157F6       loc_80157F6
 0000:080157FA       loc_80157FA
 0000:08015822       loc_8015822
 0000:08015842       locret_8015842
 0000:08015844       off_8015844
 0000:08015848       off_8015848
 0000:0801584C       off_801584C
 0000:08015850       off_8015850
 0000:08015854       sub_8015854
 0000:0801588A       loc_801588A
 0000:08015892       loc_8015892
 0000:080158D0       loc_80158D0
 0000:080158F8       locret_80158F8
 0000:080158FA       sub_80158FA
 0000:08015916       loc_8015916
 0000:08015950       loc_8015950
 0000:08015960       loc_8015960
 0000:08015974       loc_8015974
 0000:08015994       loc_8015994
 0000:08015998       locret_8015998
 0000:0801599C       sub_801599C
 0000:080159BE       loc_80159BE
 0000:080159EA       loc_80159EA
 0000:080159FC       loc_80159FC
 0000:08015A00       loc_8015A00
 0000:08015A04       loc_8015A04
 0000:08015A06       loc_8015A06
 0000:08015A0C       off_8015A0C
 0000:08015A10       off_8015A10
 0000:08015A14       off_8015A14
 0000:08015A18       sub_8015A18
 0000:08015A7E       loc_8015A7E
 0000:08015A90       loc_8015A90
 0000:08015ACA       loc_8015ACA
 0000:08015ADA       loc_8015ADA
 0000:08015B0C       loc_8015B0C
 0000:08015B16       loc_8015B16
 0000:08015B3A       loc_8015B3A
 0000:08015B42       loc_8015B42
 0000:08015BA6       sub_8015BA6
 0000:08015C58       loc_8015C58
 0000:08015C5E       loc_8015C5E
 0000:08015C62       loc_8015C62
 0000:08015C94       loc_8015C94
 0000:08015CB2       locret_8015CB2
 0000:08015CB4       off_8015CB4
 0000:08015CB8       off_8015CB8
 0000:08015CBC       off_8015CBC
 0000:08015CC0       off_8015CC0
 0000:08015CC4       off_8015CC4
 0000:08015CC8       off_8015CC8
 0000:08015CCC       off_8015CCC
 0000:08015CD0       off_8015CD0
 0000:08015CD4       off_8015CD4
 0000:08015CD8       off_8015CD8
 0000:08015CDC       off_8015CDC
 0000:08015CE0       off_8015CE0
 0000:08015CE4       off_8015CE4
 0000:08015CE8       dword_8015CE8
 0000:08015CEC       off_8015CEC
 0000:08015CF0       off_8015CF0
 0000:08015CF4       sub_8015CF4
 0000:08015CFE       loc_8015CFE
 0000:08015D10       loc_8015D10
 0000:08015D76       loc_8015D76
 0000:08015D7A       loc_8015D7A
 0000:08015E06       loc_8015E06
 0000:08015E26       loc_8015E26
 0000:08015E5C       loc_8015E5C
 0000:08015E90       loc_8015E90
 0000:08015F08       loc_8015F08
 0000:08015F3A       loc_8015F3A
 0000:08015F5A       loc_8015F5A
 0000:08015F78       loc_8015F78
 0000:08015F80       loc_8015F80
 0000:08015FB2       loc_8015FB2
 0000:08015FE2       loc_8015FE2
 0000:08016114       loc_8016114
 0000:080161D2       loc_80161D2
 0000:080161D4       loc_80161D4
 0000:080161F2       loc_80161F2
 0000:08016214       loc_8016214
 0000:0801622C       loc_801622C
 0000:080162BA       locret_80162BA
 0000:080162BC       off_80162BC
 0000:080162C0       off_80162C0
 0000:080162C4       off_80162C4
 0000:080162C8       dword_80162C8
 0000:080162CC       off_80162CC
 0000:080162D0       off_80162D0
 0000:080162D4       off_80162D4
 0000:080162D8       off_80162D8
 0000:080162DC       off_80162DC
 0000:080162E0       dword_80162E0
 0000:080162E4       off_80162E4
 0000:080162E8       off_80162E8
 0000:080162EC       off_80162EC
 0000:080162F0       off_80162F0
 0000:080162F4       off_80162F4
 0000:080162F8       off_80162F8
 0000:080162FC       dword_80162FC
 0000:08016300       off_8016300
 0000:08016304       off_8016304
 0000:08016308       off_8016308
 0000:0801630C       off_801630C
 0000:08016310       sub_8016310
 0000:08016344       loc_8016344
 0000:08016360       loc_8016360
 0000:080163EA       loc_80163EA
 0000:080163EE       loc_80163EE
 0000:0801647A       loc_801647A
 0000:0801649A       loc_801649A
 0000:080164D0       loc_80164D0
 0000:08016504       loc_8016504
 0000:0801657C       loc_801657C
 0000:080165B0       loc_80165B0
 0000:080165D0       loc_80165D0
 0000:080165F0       loc_80165F0
 0000:080165FA       loc_80165FA
 0000:0801662C       loc_801662C
 0000:0801665C       loc_801665C
 0000:0801678C       loc_801678C
 0000:08016848       loc_8016848
 0000:0801684A       loc_801684A
 0000:08016868       loc_8016868
 0000:080168C0       loc_80168C0
 0000:080168C4       off_80168C4
 0000:080168C8       off_80168C8
 0000:080168CC       sub_80168CC
 0000:08016940       loc_8016940
 0000:0801695C       locret_801695C
 0000:08016960       off_8016960
 0000:08016964       off_8016964
 0000:08016968       off_8016968
 0000:0801696C       off_801696C
 0000:08016970       off_8016970
 0000:08016974       off_8016974
 0000:08016978       off_8016978
 0000:0801697C       off_801697C
 0000:08016980       off_8016980
 0000:08016984       sub_8016984
 0000:08016A18       off_8016A18
 0000:08016A1C       off_8016A1C
 0000:08016A20       sub_8016A20
 0000:08016A64       loc_8016A64
 0000:08016A9A       loc_8016A9A
 0000:08016ABC       dword_8016ABC
 0000:08016AC0       sub_8016AC0
 0000:08016B28       loc_8016B28
 0000:08016B48       locret_8016B48
 0000:08016B4C       off_8016B4C
 0000:08016B50       off_8016B50
 0000:08016B54       off_8016B54
 0000:08016B58       sub_8016B58
 0000:08016BF8       off_8016BF8
 0000:08016BFC       off_8016BFC
 0000:08016C00       off_8016C00
 0000:08016C04       sub_8016C04
 0000:08016CB0       loc_8016CB0
 0000:08016CD0       locret_8016CD0
 0000:08016CD4       off_8016CD4
 0000:08016CD8       off_8016CD8
 0000:08016CDC       off_8016CDC
 0000:08016CE0       off_8016CE0
 0000:08016CE4       off_8016CE4
 0000:08016CE8       off_8016CE8
 0000:08016CEC       off_8016CEC
 0000:08016CF0       off_8016CF0
 0000:08016CF4       off_8016CF4
 0000:08016CF8       dword_8016CF8
 0000:08016CFC       off_8016CFC
 0000:08016D00       sub_8016D00
 0000:08016D06       loc_8016D06
 0000:08016D28       loc_8016D28
 0000:08016D3C       loc_8016D3C
 0000:08016D3E       loc_8016D3E
 0000:08016D42       loc_8016D42
 0000:08016DBC       loc_8016DBC
 0000:08016DD8       loc_8016DD8
 0000:08016DF8       loc_8016DF8
 0000:08016E14       loc_8016E14
 0000:08016E2C       loc_8016E2C
 0000:08016EBE       locret_8016EBE
 0000:08016EC0       off_8016EC0
 0000:08016EC4       off_8016EC4
 0000:08016EC8       off_8016EC8
 0000:08016ECC       sub_8016ECC
 0000:08016ED6       loc_8016ED6
 0000:08016EF8       loc_8016EF8
 0000:08016F10       loc_8016F10
 0000:08016FAA       loc_8016FAA
 0000:08016FB4       loc_8016FB4
 0000:08016FB6       loc_8016FB6
 0000:08016FBA       loc_8016FBA
 0000:08017056       loc_8017056
 0000:08017060       loc_8017060
 0000:08017062       loc_8017062
 0000:08017066       loc_8017066
 0000:08017088       loc_8017088
 0000:0801708C       loc_801708C
 0000:080170A4       loc_80170A4
 0000:08017114       locret_8017114
 0000:08017118       off_8017118
 0000:0801711C       sub_801711C
 0000:08017158       loc_8017158
 0000:0801717A       loc_801717A
 0000:0801718E       loc_801718E
 0000:08017190       loc_8017190
 0000:08017194       loc_8017194
 0000:080171C4       loc_80171C4
 0000:080171E0       locret_80171E0
 0000:080171E2       sub_80171E2
 0000:0801727A       sub_801727A
 0000:0801734E       loc_801734E
 0000:0801736A       locret_801736A
 0000:0801736C       off_801736C
 0000:08017370       off_8017370
 0000:08017374       off_8017374
 0000:08017378       off_8017378
 0000:0801737C       off_801737C
 0000:08017380       off_8017380
 0000:08017384       off_8017384
 0000:08017388       off_8017388
 0000:0801738C       off_801738C
 0000:08017390       off_8017390
 0000:08017394       sub_8017394
 0000:080173BC       loc_80173BC
 0000:080173EA       loc_80173EA
 0000:0801746C       loc_801746C
 0000:080174DA       loc_80174DA
 0000:080174FA       locret_80174FA
 0000:080174FC       off_80174FC
 0000:08017500       off_8017500
 0000:08017504       off_8017504
 0000:08017508       off_8017508
 0000:0801750C       off_801750C
 0000:08017510       sub_8017510
 0000:08017554       loc_8017554
 0000:080175E6       loc_80175E6
 0000:080175EA       loc_80175EA
 0000:0801769A       loc_801769A
 0000:0801770C       locret_801770C
 0000:08017710       off_8017710
 0000:08017714       off_8017714
 0000:08017718       off_8017718
 0000:0801771C       off_801771C
 0000:08017720       sub_8017720
 0000:08017742       loc_8017742
 0000:0801775C       loc_801775C
 0000:080177D0       loc_80177D0
 0000:080177F0       loc_80177F0
 0000:08017862       locret_8017862
 0000:08017864       off_8017864
 0000:08017868       off_8017868
 0000:0801786C       off_801786C
 0000:08017870       off_8017870
 0000:08017874       off_8017874
 0000:08017878       off_8017878
 0000:0801787C       off_801787C
 0000:08017880       off_8017880
 0000:08017884       off_8017884
 0000:08017888       off_8017888
 0000:0801788C       off_801788C
 0000:08017890       sub_8017890
 0000:0801791C       loc_801791C
 0000:0801793C       locret_801793C
 0000:08017940       off_8017940
 0000:08017944       off_8017944
 0000:08017948       off_8017948
 0000:0801794C       off_801794C
 0000:08017950       sub_8017950
 0000:080179F6       loc_80179F6
 0000:08017A16       locret_8017A16
 0000:08017A18       off_8017A18
 0000:08017A1C       off_8017A1C
 0000:08017A20       off_8017A20
 0000:08017A24       sub_8017A24
 0000:08017A52       loc_8017A52
 0000:08017A78       loc_8017A78
 0000:08017B18       sub_8017B18
 0000:08017B2C       off_8017B2C
 0000:08017B30       off_8017B30
 0000:08017B34       sub_8017B34
 0000:08017C3C       loc_8017C3C
 0000:08017C5A       locret_8017C5A
 0000:08017C5C       off_8017C5C
 0000:08017C60       off_8017C60
 0000:08017C64       sub_8017C64
 0000:08017CC6       loc_8017CC6
 0000:08017CE4       loc_8017CE4
 0000:08017CFC       loc_8017CFC
 0000:08017D06       loc_8017D06
 0000:08017D8C       loc_8017D8C
 0000:08017D90       loc_8017D90
 0000:08017D98       locret_8017D98
 0000:08017D9C       off_8017D9C
 0000:08017DA0       off_8017DA0
 0000:08017DA4       off_8017DA4
 0000:08017E0C       loc_8017E0C
 0000:08017E4A       loc_8017E4A
 0000:08017E5E       loc_8017E5E
 0000:08017E7A       loc_8017E7A
 0000:08017E8C       loc_8017E8C
 0000:08017E9E       loc_8017E9E
 0000:08017EA4       off_8017EA4
 0000:08017EA8       off_8017EA8
 0000:08017EAC       off_8017EAC
 0000:08017EB0       sub_8017EB0
 0000:08017F44       off_8017F44
 0000:08017F48       off_8017F48
 0000:08017F4C       off_8017F4C
 0000:08017F50       off_8017F50
 0000:08017F54       sub_8017F54
 0000:08018044       off_8018044
 0000:08018048       sub_8018048
 0000:080180B0       loc_80180B0
 0000:080180CE       loc_80180CE
 0000:080180E6       loc_80180E6
 0000:080180E8       loc_80180E8
 0000:08018188       loc_8018188
 0000:08018212       loc_8018212
 0000:08018216       loc_8018216
 0000:0801821E       locret_801821E
 0000:08018220       off_8018220
 0000:08018224       off_8018224
 0000:08018228       off_8018228
 0000:0801829E       loc_801829E
 0000:080182F2       loc_80182F2
 0000:08018306       loc_8018306
 0000:08018322       loc_8018322
 0000:08018334       loc_8018334
 0000:08018346       loc_8018346
 0000:0801834A       sub_801834A
 0000:080183E4       off_80183E4
 0000:080183E8       off_80183E8
 0000:080183EC       sub_80183EC
 0000:080184B2       loc_80184B2
 0000:08018504       loc_8018504
 0000:08018520       off_8018520
 0000:08018524       off_8018524
 0000:08018528       sub_8018528
 0000:0801858E       loc_801858E
 0000:080185AA       loc_80185AA
 0000:080185C0       loc_80185C0
 0000:080185C2       loc_80185C2
 0000:08018648       loc_8018648
 0000:0801864C       loc_801864C
 0000:08018654       locret_8018654
 0000:08018658       off_8018658
 0000:0801865C       off_801865C
 0000:08018660       off_8018660
 0000:08018664       off_8018664
 0000:080186C4       loc_80186C4
 0000:08018702       loc_8018702
 0000:08018716       loc_8018716
 0000:08018730       loc_8018730
 0000:08018742       loc_8018742
 0000:08018754       loc_8018754
 0000:08018758       off_8018758
 0000:0801875C       dword_801875C
 0000:08018760       off_8018760
 0000:08018764       sub_8018764
 0000:080187F4       off_80187F4
 0000:080187F8       off_80187F8
 0000:080187FC       off_80187FC
 0000:08018800       sub_8018800
 0000:080188EC       off_80188EC
 0000:080188F0       off_80188F0
 0000:080188F4       off_80188F4
 0000:080188F8       off_80188F8
 0000:080188FC       off_80188FC
 0000:08018900       off_8018900
 0000:08018904       off_8018904
 0000:08018908       sub_8018908
 0000:08018972       loc_8018972
 0000:08018992       loc_8018992
 0000:080189AA       loc_80189AA
 0000:080189AC       loc_80189AC
 0000:08018A4C       loc_8018A4C
 0000:08018AD6       loc_8018AD6
 0000:08018ADA       loc_8018ADA
 0000:08018AE2       locret_8018AE2
 0000:08018AE4       off_8018AE4
 0000:08018AE8       off_8018AE8
 0000:08018AEC       dword_8018AEC
 0000:08018B62       loc_8018B62
 0000:08018BB6       loc_8018BB6
 0000:08018BC8       loc_8018BC8
 0000:08018BE4       loc_8018BE4
 0000:08018BF6       loc_8018BF6
 0000:08018C06       loc_8018C06
 0000:08018C0A       sub_8018C0A
 0000:08018CA4       off_8018CA4
 0000:08018CA8       off_8018CA8
 0000:08018CAC       sub_8018CAC
 0000:08018D7A       loc_8018D7A
 0000:08018DD2       loc_8018DD2
 0000:08018DEC       off_8018DEC
 0000:08018DF0       off_8018DF0
 0000:08018DF4       dword_8018DF4
 0000:08018DF8       off_8018DF8
 0000:08018DFC       sub_8018DFC
 0000:08018E5C       loc_8018E5C
 0000:08018E78       loc_8018E78
 0000:08018E88       sub_8018E88
 0000:08018EB4       sub_8018EB4
 0000:08018F48       off_8018F48
 0000:08018F4C       off_8018F4C
 0000:08018F50       sub_8018F50
 0000:08018FB0       loc_8018FB0
 0000:08018FCC       loc_8018FCC
 0000:08018FE6       locret_8018FE6
 0000:08018FE8       sub_8018FE8
 0000:08019014       off_8019014
 0000:08019018       off_8019018
 0000:0801901C       sub_801901C
 0000:080190B8       off_80190B8
 0000:080190BC       off_80190BC
 0000:080190C0       off_80190C0
 0000:080190C4       sub_80190C4
 0000:08019130       off_8019130
 0000:08019134       off_8019134
 0000:08019138       off_8019138
 0000:0801913C       off_801913C
 0000:08019140       off_8019140
 0000:08019144       dword_8019144
 0000:08019148       sub_8019148
 0000:0801916E       loc_801916E
 0000:08019192       loc_8019192
 0000:0801922C       sub_801922C
 0000:08019244       loc_8019244
 0000:08019282       loc_8019282
 0000:080192A2       loc_80192A2
 0000:080192AA       locret_80192AA
 0000:080192AC       sub_80192AC
 0000:08019324       off_8019324
 0000:08019328       off_8019328
 0000:0801932C       off_801932C
 0000:08019330       off_8019330
 0000:08019334       sub_8019334
 0000:08019340       loc_8019340
 0000:0801935E       loc_801935E
 0000:08019362       loc_8019362
 0000:0801938E       loc_801938E
 0000:080193BA       loc_80193BA
 0000:080193DA       loc_80193DA
 0000:080193EC       loc_80193EC
 0000:080195AE       loc_80195AE
 0000:080195C6       loc_80195C6
 0000:080195E6       loc_80195E6
 0000:080195E8       loc_80195E8
 0000:080195FA       loc_80195FA
 0000:0801960E       loc_801960E
 0000:08019610       loc_8019610
 0000:08019614       loc_8019614
 0000:0801969A       loc_801969A
 0000:080196B4       loc_80196B4
 0000:080196C2       loc_80196C2
 0000:080196D4       sub_80196D4
 0000:08019744       sub_8019744
 0000:08019762       loc_8019762
 0000:08019784       loc_8019784
 0000:08019818       off_8019818
 0000:0801981C       off_801981C
 0000:08019820       sub_8019820
 0000:08019836       loc_8019836
 0000:08019874       loc_8019874
 0000:08019892       loc_8019892
 0000:0801989A       locret_801989A
 0000:0801989C       off_801989C
 0000:080198A0       sub_80198A0
 0000:08019914       off_8019914
 0000:08019918       off_8019918
 0000:0801991C       off_801991C
 0000:08019920       off_8019920
 0000:08019924       off_8019924
 0000:08019928       off_8019928
 0000:0801992C       off_801992C
 0000:08019930       off_8019930
 0000:08019934       off_8019934
 0000:08019938       off_8019938
 0000:0801993C       sub_801993C
 0000:08019948       loc_8019948
 0000:08019962       loc_8019962
 0000:08019966       loc_8019966
 0000:08019992       loc_8019992
 0000:080199BE       loc_80199BE
 0000:080199DE       loc_80199DE
 0000:080199EE       loc_80199EE
 0000:08019B98       loc_8019B98
 0000:08019BAC       loc_8019BAC
 0000:08019BCC       loc_8019BCC
 0000:08019BCE       loc_8019BCE
 0000:08019BDE       loc_8019BDE
 0000:08019BF0       loc_8019BF0
 0000:08019BF2       loc_8019BF2
 0000:08019BF6       loc_8019BF6
 0000:08019C6C       loc_8019C6C
 0000:08019C8A       loc_8019C8A
 0000:08019C9C       loc_8019C9C
 0000:08019CB0       off_8019CB0
 0000:08019CB4       off_8019CB4
 0000:08019CB8       off_8019CB8
 0000:08019CBC       off_8019CBC
 0000:08019CC0       off_8019CC0
 0000:08019CC4       off_8019CC4
 0000:08019CC8       off_8019CC8
 0000:08019CCC       off_8019CCC
 0000:08019CD0       off_8019CD0
 0000:08019CD4       off_8019CD4
 0000:08019CD8       off_8019CD8
 0000:08019CDC       off_8019CDC
 0000:08019CE0       off_8019CE0
 0000:08019CE4       off_8019CE4
 0000:08019CE8       sub_8019CE8
 0000:08019D04       loc_8019D04
 0000:08019D1C       loc_8019D1C
 0000:08019D20       loc_8019D20
 0000:08019D46       loc_8019D46
 0000:08019DD8       off_8019DD8
 0000:08019DDC       off_8019DDC
 0000:08019DE0       sub_8019DE0
 0000:08019E66       loc_8019E66
 0000:08019ED6       locret_8019ED6
 0000:08019ED8       off_8019ED8
 0000:08019EDC       sub_8019EDC
 0000:08019F14       loc_8019F14
 0000:08019F3A       loc_8019F3A
 0000:08019F3E       loc_8019F3E
 0000:08019F72       loc_8019F72
 0000:08019F9C       loc_8019F9C
 0000:08019FA2       loc_8019FA2
 0000:08019FD4       off_8019FD4
 0000:08019FD8       sub_8019FD8
 0000:0801A042       loc_801A042
 0000:0801A062       loc_801A062
 0000:0801A074       locret_801A074
 0000:0801A076       sub_801A076
 0000:0801A0BA       loc_801A0BA
 0000:0801A0C0       loc_801A0C0
 0000:0801A0D4       loc_801A0D4
 0000:0801A0F0       loc_801A0F0
 0000:0801A120       loc_801A120
 0000:0801A132       locret_801A132
 0000:0801A134       off_801A134
 0000:0801A138       off_801A138
 0000:0801A13C       sub_801A13C
 0000:0801A1D4       off_801A1D4
 0000:0801A1D8       off_801A1D8
 0000:0801A1DC       sub_801A1DC
 0000:0801A274       off_801A274
 0000:0801A278       off_801A278
 0000:0801A27C       sub_801A27C
 0000:0801A328       loc_801A328
 0000:0801A346       locret_801A346
 0000:0801A348       off_801A348
 0000:0801A34C       off_801A34C
 0000:0801A350       nullsub_28
 0000:0801A354       off_801A354
 0000:0801A358       veda_ui_put_digit_utf16
 0000:0801A364       locret_801A364
 0000:0801A366       sub_801A366
 0000:0801A3D0       off_801A3D0
 0000:0801A3D4       off_801A3D4
 0000:0801A3D8       off_801A3D8
 0000:0801A3DC       off_801A3DC
 0000:0801A3E0       off_801A3E0
 0000:0801A3E4       off_801A3E4
 0000:0801A3E8       off_801A3E8
 0000:0801A3EC       off_801A3EC
 0000:0801A3F0       sub_801A3F0
 0000:0801A472       loc_801A472
 0000:0801A476       loc_801A476
 0000:0801A4EA       loc_801A4EA
 0000:0801A51A       loc_801A51A
 0000:0801A51C       loc_801A51C
 0000:0801A538       locret_801A538
 0000:0801A53C       off_801A53C
 0000:0801A540       off_801A540
 0000:0801A544       off_801A544
 0000:0801A548       off_801A548
 0000:0801A54C       off_801A54C
 0000:0801A550       off_801A550
 0000:0801A554       off_801A554
 0000:0801A558       sub_801A558
 0000:0801A638       loc_801A638
 0000:0801A658       locret_801A658
 0000:0801A65C       off_801A65C
 0000:0801A660       off_801A660
 0000:0801A664       sub_801A664
 0000:0801A688       loc_801A688
 0000:0801A6A0       loc_801A6A0
 0000:0801A708       loc_801A708
 0000:0801A712       loc_801A712
 0000:0801A758       off_801A758
 0000:0801A75C       off_801A75C
 0000:0801A760       off_801A760
 0000:0801A764       off_801A764
 0000:0801A768       off_801A768
 0000:0801A76C       off_801A76C
 0000:0801A770       off_801A770
 0000:0801A774       off_801A774
 0000:0801A778       sub_801A778
 0000:0801A7E8       loc_801A7E8
 0000:0801A814       loc_801A814
 0000:0801A818       loc_801A818
 0000:0801A832       loc_801A832
 0000:0801A850       loc_801A850
 0000:0801A864       loc_801A864
 0000:0801A8BE       loc_801A8BE
 0000:0801A8E8       loc_801A8E8
 0000:0801A8EA       loc_801A8EA
 0000:0801A908       loc_801A908
 0000:0801A98E       loc_801A98E
 0000:0801A994       off_801A994
 0000:0801A998       sub_801A998
 0000:0801A9B4       loc_801A9B4
 0000:0801A9CC       loc_801A9CC
 0000:0801A9E4       loc_801A9E4
 0000:0801A9FC       loc_801A9FC
 0000:0801AA14       loc_801AA14
 0000:0801AA2A       loc_801AA2A
 0000:0801AA9C       off_801AA9C
 0000:0801AAA0       off_801AAA0
 0000:0801AAA4       sub_801AAA4
 0000:0801AB54       off_801AB54
 0000:0801AB58       veda_ui_format_version_string
 0000:0801ABB0       off_801ABB0
 0000:0801ABB4       off_801ABB4
 0000:0801ABB8       off_801ABB8
 0000:0801ABBC       sub_801ABBC
 0000:0801AC10       loc_801AC10
 0000:0801AC14       loc_801AC14
 0000:0801AC76       loc_801AC76
 0000:0801AC94       locret_801AC94
 0000:0801AC96       sub_801AC96
 0000:0801ACAE       loc_801ACAE
 0000:0801ACD2       loc_801ACD2
 0000:0801AD5C       sub_801AD5C
 0000:0801AD72       loc_801AD72
 0000:0801ADA6       loc_801ADA6
 0000:0801ADC4       loc_801ADC4
 0000:0801ADCC       locret_801ADCC
 0000:0801ADD0       off_801ADD0
 0000:0801ADD4       off_801ADD4
 0000:0801ADD8       off_801ADD8
 0000:0801ADDC       off_801ADDC
 0000:0801ADE0       off_801ADE0
 0000:0801ADE4       off_801ADE4
 0000:0801ADE8       off_801ADE8
 0000:0801ADEC       off_801ADEC
 0000:0801ADF0       off_801ADF0
 0000:0801ADF4       off_801ADF4
 0000:0801ADF8       sub_801ADF8
 0000:0801AE4C       loc_801AE4C
 0000:0801AE74       loc_801AE74
 0000:0801AE78       loc_801AE78
 0000:0801AE92       loc_801AE92
 0000:0801AEC4       loc_801AEC4
 0000:0801AEDA       loc_801AEDA
 0000:0801AF36       loc_801AF36
 0000:0801AF66       loc_801AF66
 0000:0801AF76       loc_801AF76
 0000:0801AF94       loc_801AF94
 0000:0801AFB4       loc_801AFB4
 0000:0801AFCA       loc_801AFCA
 0000:0801B052       loc_801B052
 0000:0801B058       off_801B058
 0000:0801B05C       off_801B05C
 0000:0801B060       off_801B060
 0000:0801B064       off_801B064
 0000:0801B068       off_801B068
 0000:0801B06C       off_801B06C
 0000:0801B070       off_801B070
 0000:0801B074       off_801B074
 0000:0801B078       off_801B078
 0000:0801B07C       off_801B07C
 0000:0801B080       off_801B080
 0000:0801B084       sub_801B084
 0000:0801B09E       loc_801B09E
 0000:0801B0C2       loc_801B0C2
 0000:0801B0FE       loc_801B0FE
 0000:0801B112       loc_801B112
 0000:0801B116       loc_801B116
 0000:0801B12E       loc_801B12E
 0000:0801B158       loc_801B158
 0000:0801B168       loc_801B168
 0000:0801B174       loc_801B174
 0000:0801B178       off_801B178
 0000:0801B17C       off_801B17C
 0000:0801B180       dword_801B180
 0000:0801B184       sub_801B184
 0000:0801B202       loc_801B202
 0000:0801B264       loc_801B264
 0000:0801B280       locret_801B280
 0000:0801B284       off_801B284
 0000:0801B288       sub_801B288
 0000:0801B314       loc_801B314
 0000:0801B33E       locret_801B33E
 0000:0801B340       off_801B340
 0000:0801B344       off_801B344
 0000:0801B348       off_801B348
 0000:0801B34C       sub_801B34C
 0000:0801B356       loc_801B356
 0000:0801B368       loc_801B368
 0000:0801B394       loc_801B394
 0000:0801B3F4       loc_801B3F4
 0000:0801B400       loc_801B400
 0000:0801B410       loc_801B410
 0000:0801B42E       loc_801B42E
 0000:0801B432       loc_801B432
 0000:0801B466       loc_801B466
 0000:0801B490       loc_801B490
 0000:0801B496       loc_801B496
 0000:0801B4BC       off_801B4BC
 0000:0801B4C0       sub_801B4C0
 0000:0801B56A       loc_801B56A
 0000:0801B58A       locret_801B58A
 0000:0801B58C       off_801B58C
 0000:0801B590       off_801B590
 0000:0801B594       sub_801B594
 0000:0801B59C       sub_801B59C
 0000:0801B5BE       loc_801B5BE
 0000:0801B5D6       loc_801B5D6
 0000:0801B64C       loc_801B64C
 0000:0801B654       loc_801B654
 0000:0801B6A0       off_801B6A0
 0000:0801B6A4       off_801B6A4
 0000:0801B6A8       off_801B6A8
 0000:0801B6AC       off_801B6AC
 0000:0801B6B0       off_801B6B0
 0000:0801B6B4       off_801B6B4
 0000:0801B6B8       off_801B6B8
 0000:0801B6BC       off_801B6BC
 0000:0801B6C0       off_801B6C0
 0000:0801B6C4       off_801B6C4
 0000:0801B6C8       off_801B6C8
 0000:0801B6CC       off_801B6CC
 0000:0801B6D0       off_801B6D0
 0000:0801B6D4       off_801B6D4
 0000:0801B6D8       off_801B6D8
 0000:0801B6DC       off_801B6DC
 0000:0801B6E0       off_801B6E0
 0000:0801B6E4       off_801B6E4
 0000:0801B6E8       off_801B6E8
 0000:0801B6EC       off_801B6EC
 0000:0801B6F0       off_801B6F0
 0000:0801B6F4       off_801B6F4
 0000:0801B6F8       off_801B6F8
 0000:0801B6FC       off_801B6FC
 0000:0801B700       off_801B700
 0000:0801B704       off_801B704
 0000:0801B708       off_801B708
 0000:0801B70C       off_801B70C
 0000:0801B710       off_801B710
 0000:0801B714       off_801B714
 0000:0801B718       sub_801B718
 0000:0801B786       loc_801B786
 0000:0801B7BA       loc_801B7BA
 0000:0801B7C0       loc_801B7C0
 0000:0801B7EE       loc_801B7EE
 0000:0801B80C       loc_801B80C
 0000:0801B820       loc_801B820
 0000:0801B878       loc_801B878
 0000:0801B8A8       loc_801B8A8
 0000:0801B8AA       loc_801B8AA
 0000:0801B8CA       loc_801B8CA
 0000:0801B936       loc_801B936
 0000:0801B954       loc_801B954
 0000:0801B9A6       loc_801B9A6
 0000:0801B9AA       loc_801B9AA
 0000:0801B9BA       loc_801B9BA
 0000:0801B9FC       loc_801B9FC
 0000:0801BA00       loc_801BA00
 0000:0801BA10       loc_801BA10
 0000:0801BA56       loc_801BA56
 0000:0801BA5A       loc_801BA5A
 0000:0801BA6A       loc_801BA6A
 0000:0801BAB0       loc_801BAB0
 0000:0801BAB4       loc_801BAB4
 0000:0801BAC4       loc_801BAC4
 0000:0801BB0A       loc_801BB0A
 0000:0801BB0E       loc_801BB0E
 0000:0801BB1E       loc_801BB1E
 0000:0801BB82       loc_801BB82
 0000:0801BBA0       locret_801BBA0
 0000:0801BBA4       sub_801BBA4
 0000:0801BBBA       loc_801BBBA
 0000:0801BBCE       loc_801BBCE
 0000:0801BBD2       loc_801BBD2
 0000:0801BBEA       loc_801BBEA
 0000:0801BC0C       off_801BC0C
 0000:0801BC10       off_801BC10
 0000:0801BC14       off_801BC14
 0000:0801BC18       off_801BC18
 0000:0801BC1C       off_801BC1C
 0000:0801BC20       off_801BC20
 0000:0801BC24       off_801BC24
 0000:0801BC28       off_801BC28
 0000:0801BC2C       off_801BC2C
 0000:0801BC30       sub_801BC30
 0000:0801BC36       loc_801BC36
 0000:0801BC4C       loc_801BC4C
 0000:0801BCB4       off_801BCB4
 0000:0801BCB8       off_801BCB8
 0000:0801BCBC       off_801BCBC
 0000:0801BCC0       sub_801BCC0
 0000:0801BCC6       loc_801BCC6
 0000:0801BCDC       loc_801BCDC
 0000:0801BD4C       off_801BD4C
 0000:0801BD50       sub_801BD50
 0000:0801BD56       loc_801BD56
 0000:0801BD6C       loc_801BD6C
 0000:0801BDDC       sub_801BDDC
 0000:0801BDE2       loc_801BDE2
 0000:0801BDF8       loc_801BDF8
 0000:0801BE68       sub_801BE68
 0000:0801BE6E       loc_801BE6E
 0000:0801BE84       loc_801BE84
 0000:0801BEF4       off_801BEF4
 0000:0801BEF8       off_801BEF8
 0000:0801BEFC       off_801BEFC
 0000:0801BF00       off_801BF00
 0000:0801BF04       off_801BF04
 0000:0801BF08       off_801BF08
 0000:0801BF0C       off_801BF0C
 0000:0801BF10       dword_801BF10
 0000:0801BF14       off_801BF14
 0000:0801BF18       off_801BF18
 0000:0801BF1C       off_801BF1C
 0000:0801BF20       off_801BF20
 0000:0801BF24       off_801BF24
 0000:0801BF28       off_801BF28
 0000:0801BF2C       off_801BF2C
 0000:0801BF30       off_801BF30
 0000:0801BF34       off_801BF34
 0000:0801BF38       off_801BF38
 0000:0801BF3C       off_801BF3C
 0000:0801BF40       off_801BF40
 0000:0801BF44       off_801BF44
 0000:0801BF48       off_801BF48
 0000:0801BF4C       off_801BF4C
 0000:0801BF50       off_801BF50
 0000:0801BF54       off_801BF54
 0000:0801BF58       sub_801BF58
 0000:0801BF90       loc_801BF90
 0000:0801BF9A       loc_801BF9A
 0000:0801BFD8       loc_801BFD8
 0000:0801BFDC       loc_801BFDC
 0000:0801C02E       loc_801C02E
 0000:0801C05E       loc_801C05E
 0000:0801C074       loc_801C074
 0000:0801C078       loc_801C078
 0000:0801C0D6       loc_801C0D6
 0000:0801C0DA       loc_801C0DA
 0000:0801C124       loc_801C124
 0000:0801C128       loc_801C128
 0000:0801C17C       loc_801C17C
 0000:0801C180       loc_801C180
 0000:0801C1CA       loc_801C1CA
 0000:0801C1CE       loc_801C1CE
 0000:0801C218       loc_801C218
 0000:0801C21C       loc_801C21C
 0000:0801C266       loc_801C266
 0000:0801C26A       loc_801C26A
 0000:0801C2B4       loc_801C2B4
 0000:0801C2B8       loc_801C2B8
 0000:0801C30C       loc_801C30C
 0000:0801C310       loc_801C310
 0000:0801C382       loc_801C382
 0000:0801C386       loc_801C386
 0000:0801C40E       loc_801C40E
 0000:0801C412       loc_801C412
 0000:0801C460       loc_801C460
 0000:0801C464       loc_801C464
 0000:0801C4AE       loc_801C4AE
 0000:0801C4B2       loc_801C4B2
 0000:0801C500       loc_801C500
 0000:0801C534       loc_801C534
 0000:0801C574       loc_801C574
 0000:0801C58A       loc_801C58A
 0000:0801C58E       loc_801C58E
 0000:0801C5C0       loc_801C5C0
 0000:0801C606       loc_801C606
 0000:0801C60A       loc_801C60A
 0000:0801C652       loc_801C652
 0000:0801C656       loc_801C656
 0000:0801C69E       loc_801C69E
 0000:0801C6A2       loc_801C6A2
 0000:0801C6EA       loc_801C6EA
 0000:0801C6EE       loc_801C6EE
 0000:0801C798       loc_801C798
 0000:0801C79C       loc_801C79C
 0000:0801C7FE       loc_801C7FE
 0000:0801C81A       locret_801C81A
 0000:0801C81C       off_801C81C
 0000:0801C820       sub_801C820
 0000:0801C874       loc_801C874
 0000:0801C87C       loc_801C87C
 0000:0801C8D6       loc_801C8D6
 0000:0801C8F2       locret_801C8F2
 0000:0801C8F4       off_801C8F4
 0000:0801C8F8       off_801C8F8
 0000:0801C8FC       off_801C8FC
 0000:0801C900       sub_801C900
 0000:0801C976       loc_801C976
 0000:0801C9A0       loc_801C9A0
 0000:0801C9D2       loc_801C9D2
 0000:0801C9EC       loc_801C9EC
 0000:0801C9F6       loc_801C9F6
 0000:0801CA28       loc_801CA28
 0000:0801CA42       loc_801CA42
 0000:0801CA4A       loc_801CA4A
 0000:0801CA6A       locret_801CA6A
 0000:0801CA6C       off_801CA6C
 0000:0801CA70       off_801CA70
 0000:0801CA74       off_801CA74
 0000:0801CA78       off_801CA78
 0000:0801CA7C       off_801CA7C
 0000:0801CA80       sub_801CA80
 0000:0801CAE0       loc_801CAE0
 0000:0801CAE8       loc_801CAE8
 0000:0801CB4A       loc_801CB4A
 0000:0801CB66       locret_801CB66
 0000:0801CB68       off_801CB68
 0000:0801CB6C       off_801CB6C
 0000:0801CB70       off_801CB70
 0000:0801CB74       off_801CB74
 0000:0801CB78       off_801CB78
 0000:0801CB7C       off_801CB7C
 0000:0801CB80       off_801CB80
 0000:0801CB84       off_801CB84
 0000:0801CB88       off_801CB88
 0000:0801CB8C       off_801CB8C
 0000:0801CB90       sub_801CB90
 0000:0801CC00       loc_801CC00
 0000:0801CC42       loc_801CC42
 0000:0801CC72       locret_801CC72
 0000:0801CC74       off_801CC74
 0000:0801CC78       dword_801CC78
 0000:0801CC7C       dword_801CC7C
 0000:0801CC80       dword_801CC80
 0000:0801CC84       dword_801CC84
 0000:0801CC88       sub_801CC88
 0000:0801CCEC       loc_801CCEC
 0000:0801CCF4       loc_801CCF4
 0000:0801CD5A       loc_801CD5A
 0000:0801CD78       locret_801CD78
 0000:0801CD7C       dword_801CD7C
 0000:0801CD80       dword_801CD80
 0000:0801CD84       dword_801CD84
 0000:0801CD88       sub_801CD88
 0000:0801CDFA       loc_801CDFA
 0000:0801CE1E       loc_801CE1E
 0000:0801CE58       dword_801CE58
 0000:0801CE5C       dword_801CE5C
 0000:0801CE60       dword_801CE60
 0000:0801CE64       off_801CE64
 0000:0801CE68       off_801CE68
 0000:0801CE6C       off_801CE6C
 0000:0801CE70       off_801CE70
 0000:0801CE74       sub_801CE74
 0000:0801CED8       loc_801CED8
 0000:0801CEE0       loc_801CEE0
 0000:0801CEE8       loc_801CEE8
 0000:0801CEF0       loc_801CEF0
 0000:0801CEF8       loc_801CEF8
 0000:0801CEFE       loc_801CEFE
 0000:0801CFCC       loc_801CFCC
 0000:0801CFEA       locret_801CFEA
 0000:0801CFEC       off_801CFEC
 0000:0801CFF0       off_801CFF0
 0000:0801CFF4       sub_801CFF4
 0000:0801D0A4       off_801D0A4
 0000:0801D0A8       off_801D0A8
 0000:0801D0AC       off_801D0AC
 0000:0801D0B0       sub_801D0B0
 0000:0801D12C       loc_801D12C
 0000:0801D132       loc_801D132
 0000:0801D13A       loc_801D13A
 0000:0801D13C       loc_801D13C
 0000:0801D158       locret_801D158
 0000:0801D15C       off_801D15C
 0000:0801D160       off_801D160
 0000:0801D164       off_801D164
 0000:0801D168       sub_801D168
 0000:0801D1DC       off_801D1DC
 0000:0801D1E0       off_801D1E0
 0000:0801D1E4       sub_801D1E4
 0000:0801D224       loc_801D224
 0000:0801D22A       loc_801D22A
 0000:0801D232       loc_801D232
 0000:0801D24E       loc_801D24E
 0000:0801D266       loc_801D266
 0000:0801D26C       locret_801D26C
 0000:0801D270       off_801D270
 0000:0801D274       off_801D274
 0000:0801D278       off_801D278
 0000:0801D27C       sub_801D27C
 0000:0801D2D4       loc_801D2D4
 0000:0801D2DC       loc_801D2DC
 0000:0801D33A       loc_801D33A
 0000:0801D354       locret_801D354
 0000:0801D358       off_801D358
 0000:0801D35C       off_801D35C
 0000:0801D360       off_801D360
 0000:0801D364       off_801D364
 0000:0801D368       off_801D368
 0000:0801D36C       sub_801D36C
 0000:0801D3C8       loc_801D3C8
 0000:0801D3D0       loc_801D3D0
 0000:0801D436       loc_801D436
 0000:0801D452       locret_801D452
 0000:0801D454       off_801D454
 0000:0801D458       off_801D458
 0000:0801D45C       off_801D45C
 0000:0801D460       off_801D460
 0000:0801D464       off_801D464
 0000:0801D468       off_801D468
 0000:0801D46C       off_801D46C
 0000:0801D470       off_801D470
 0000:0801D474       sub_801D474
 0000:0801D4D6       loc_801D4D6
 0000:0801D4DE       loc_801D4DE
 0000:0801D54C       loc_801D54C
 0000:0801D56A       locret_801D56A
 0000:0801D56C       off_801D56C
 0000:0801D570       off_801D570
 0000:0801D574       sub_801D574
 0000:0801D5D0       loc_801D5D0
 0000:0801D5D8       loc_801D5D8
 0000:0801D63E       loc_801D63E
 0000:0801D65E       locret_801D65E
 0000:0801D664       off_801D664
 0000:0801D668       sub_801D668
 0000:0801D710       off_801D710
 0000:0801D714       sub_801D714
 0000:0801D79C       sub_801D79C
 0000:0801D808       loc_801D808
 0000:0801D828       loc_801D828
 0000:0801D834       sub_801D834
 0000:0801D870       off_801D870
 0000:0801D874       off_801D874
 0000:0801D878       off_801D878
 0000:0801D87C       off_801D87C
 0000:0801D880       sub_801D880
 0000:0801D912       sub_801D912
 0000:0801D9E0       loc_801D9E0
 0000:0801D9FE       locret_801D9FE
 0000:0801DA00       off_801DA00
 0000:0801DA04       off_801DA04
 0000:0801DA08       off_801DA08
 0000:0801DA0C       off_801DA0C
 0000:0801DA10       sub_801DA10
 0000:0801DA84       loc_801DA84
 0000:0801DAA0       locret_801DAA0
 0000:0801DAA2       sub_801DAA2
 0000:0801DAD6       loc_801DAD6
 0000:0801DAF2       loc_801DAF2
 0000:0801DB06       loc_801DB06
 0000:0801DB14       loc_801DB14
 0000:0801DB42       locret_801DB42
 0000:0801DB44       off_801DB44
 0000:0801DB48       sub_801DB48
 0000:0801DBA8       off_801DBA8
 0000:0801DBAC       off_801DBAC
 0000:0801DBB0       off_801DBB0
 0000:0801DBB4       off_801DBB4
 0000:0801DBB8       off_801DBB8
 0000:0801DBBC       off_801DBBC
 0000:0801DBC0       sub_801DBC0
 0000:0801DCDE       loc_801DCDE
 0000:0801DCF2       loc_801DCF2
 0000:0801DCF8       loc_801DCF8
 0000:0801DCFC       loc_801DCFC
 0000:0801DD64       loc_801DD64
 0000:0801DD8A       loc_801DD8A
 0000:0801DDAC       loc_801DDAC
 0000:0801DDB2       loc_801DDB2
 0000:0801DDC2       loc_801DDC2
 0000:0801DE1E       loc_801DE1E
 0000:0801DE4C       loc_801DE4C
 0000:0801DE58       loc_801DE58
 0000:0801DE62       loc_801DE62
 0000:0801DEA8       off_801DEA8
 0000:0801DEAC       off_801DEAC
 0000:0801DEB0       sub_801DEB0
 0000:0801DF26       sub_801DF26
 0000:0801DF9A       sub_801DF9A
 0000:0801DFA4       sub_801DFA4
 0000:0801DFB0       off_801DFB0
 0000:0801DFB4       off_801DFB4
 0000:0801DFB8       sub_801DFB8
 0000:0801E012       sub_801E012
 0000:0801E078       dword_801E078
 0000:0801E07C       sub_801E07C
 0000:0801E092       loc_801E092
 0000:0801E0AE       loc_801E0AE
 0000:0801E0CA       loc_801E0CA
 0000:0801E0E2       loc_801E0E2
 0000:0801E0FE       loc_801E0FE
 0000:0801E11A       loc_801E11A
 0000:0801E136       loc_801E136
 0000:0801E152       loc_801E152
 0000:0801E16E       loc_801E16E
 0000:0801E188       locret_801E188
 0000:0801E18A       sub_801E18A
 0000:0801E218       off_801E218
 0000:0801E21C       off_801E21C
 0000:0801E220       sub_801E220
 0000:0801E2AA       sub_801E2AA
 0000:0801E31C       off_801E31C
 0000:0801E320       sub_801E320
 0000:0801E38C       off_801E38C
 0000:0801E390       veda_ui_push_triplet_status_a
 0000:0801E3C0       off_801E3C0
 0000:0801E3C4       off_801E3C4
 0000:0801E3C8       veda_ui_push_triplet_status_b
 0000:0801E3FC       off_801E3FC
 0000:0801E400       off_801E400
 0000:0801E404       off_801E404
 0000:0801E408       off_801E408
 0000:0801E40C       off_801E40C
 0000:0801E410       veda_ui_pack_word_to_status_byte
 0000:0801E42A       loc_801E42A
 0000:0801E438       loc_801E438
 0000:0801E446       loc_801E446
 0000:0801E450       loc_801E450
 0000:0801E45E       loc_801E45E
 0000:0801E46C       loc_801E46C
 0000:0801E47A       loc_801E47A
 0000:0801E488       loc_801E488
 0000:0801E496       loc_801E496
 0000:0801E4A2       loc_801E4A2
 0000:0801E4A6       sub_801E4A6
 0000:0801E4FA       loc_801E4FA
 0000:0801E502       loc_801E502
 0000:0801E55C       loc_801E55C
 0000:0801E578       locret_801E578
 0000:0801E57C       off_801E57C
 0000:0801E580       off_801E580
 0000:0801E584       off_801E584
 0000:0801E588       off_801E588
 0000:0801E58C       sub_801E58C
 0000:0801E592       loc_801E592
 0000:0801E5B2       loc_801E5B2
 0000:0801E62C       off_801E62C
 0000:0801E630       off_801E630
 0000:0801E634       off_801E634
 0000:0801E638       off_801E638
 0000:0801E63C       off_801E63C
 0000:0801E640       off_801E640
 0000:0801E644       off_801E644
 0000:0801E648       off_801E648
 0000:0801E64C       off_801E64C
 0000:0801E650       off_801E650
 0000:0801E654       off_801E654
 0000:0801E658       off_801E658
 0000:0801E65C       off_801E65C
 0000:0801E660       off_801E660
 0000:0801E664       off_801E664
 0000:0801E668       dmr_radio_register_handlers_ext
 0000:0801E6A2       loc_801E6A2
 0000:0801E6C0       loc_801E6C0
 0000:0801E6DE       loc_801E6DE
 0000:0801E6EC       loc_801E6EC
 0000:0801E6F0       loc_801E6F0
 0000:0801E718       loc_801E718
 0000:0801E724       loc_801E724
 0000:0801E74A       loc_801E74A
 0000:0801E74E       loc_801E74E
 0000:0801E774       loc_801E774
 0000:0801E788       loc_801E788
 0000:0801E7B6       loc_801E7B6
 0000:0801E7E4       loc_801E7E4
 0000:0801E7E8       loc_801E7E8
 0000:0801E7F8       loc_801E7F8
 0000:0801E7FC       loc_801E7FC
 0000:0801E852       loc_801E852
 0000:0801E876       loc_801E876
 0000:0801E894       loc_801E894
 0000:0801E8C8       loc_801E8C8
 0000:0801E8F0       loc_801E8F0
 0000:0801E92E       loc_801E92E
 0000:0801E932       loc_801E932
 0000:0801E958       loc_801E958
 0000:0801E9AE       loc_801E9AE
 0000:0801EA24       loc_801EA24
 0000:0801EA48       loc_801EA48
 0000:0801EA66       loc_801EA66
 0000:0801EA6A       loc_801EA6A
 0000:0801EA92       loc_801EA92
 0000:0801EACE       loc_801EACE
 0000:0801EB60       off_801EB60
 0000:0801EB64       off_801EB64
 0000:0801EB68       off_801EB68
 0000:0801EB6C       sub_801EB6C
 0000:0801EBF4       off_801EBF4
 0000:0801EBF8       off_801EBF8
 0000:0801EBFC       off_801EBFC
 0000:0801EC00       sub_801EC00
 0000:0801EC38       loc_801EC38
 0000:0801EC42       loc_801EC42
 0000:0801EC78       loc_801EC78
 0000:0801EC7E       loc_801EC7E
 0000:0801ECE0       loc_801ECE0
 0000:0801ECFE       loc_801ECFE
 0000:0801ED08       off_801ED08
 0000:0801ED0C       off_801ED0C
 0000:0801ED10       off_801ED10
 0000:0801ED14       off_801ED14
 0000:0801ED18       off_801ED18
 0000:0801ED1C       sub_801ED1C
 0000:0801ED54       loc_801ED54
 0000:0801ED5E       loc_801ED5E
 0000:0801ED96       loc_801ED96
 0000:0801ED9C       loc_801ED9C
 0000:0801EDFE       loc_801EDFE
 0000:0801EE1C       loc_801EE1C
 0000:0801EE28       off_801EE28
 0000:0801EE2C       off_801EE2C
 0000:0801EE30       off_801EE30
 0000:0801EE34       off_801EE34
 0000:0801EE38       off_801EE38
 0000:0801EE3C       off_801EE3C
 0000:0801EE40       off_801EE40
 0000:0801EE44       off_801EE44
 0000:0801EE48       off_801EE48
 0000:0801EE4C       off_801EE4C
 0000:0801EE50       off_801EE50
 0000:0801EE54       sub_801EE54
 0000:0801EEB0       loc_801EEB0
 0000:0801EEC6       loc_801EEC6
 0000:0801EECA       loc_801EECA
 0000:0801EF32       loc_801EF32
 0000:0801EF62       loc_801EF62
 0000:0801EFB0       loc_801EFB0
 0000:0801EFDA       loc_801EFDA
 0000:0801EFF0       loc_801EFF0
 0000:0801F014       loc_801F014
 0000:0801F036       loc_801F036
 0000:0801F038       loc_801F038
 0000:0801F04E       loc_801F04E
 0000:0801F064       loc_801F064
 0000:0801F07A       loc_801F07A
 0000:0801F090       loc_801F090
 0000:0801F0A6       loc_801F0A6
 0000:0801F0CC       loc_801F0CC
 0000:0801F0E2       loc_801F0E2
 0000:0801F0F8       loc_801F0F8
 0000:0801F112       loc_801F112
 0000:0801F12C       loc_801F12C
 0000:0801F146       locret_801F146
 0000:0801F148       off_801F148
 0000:0801F14C       off_801F14C
 0000:0801F150       off_801F150
 0000:0801F154       dword_801F154
 0000:0801F158       off_801F158
 0000:0801F15C       off_801F15C
 0000:0801F160       off_801F160
 0000:0801F164       off_801F164
 0000:0801F168       off_801F168
 0000:0801F16C       sub_801F16C
 0000:0801F1C0       loc_801F1C0
 0000:0801F1D6       loc_801F1D6
 0000:0801F206       loc_801F206
 0000:0801F21C       loc_801F21C
 0000:0801F220       loc_801F220
 0000:0801F288       loc_801F288
 0000:0801F2B8       loc_801F2B8
 0000:0801F30A       loc_801F30A
 0000:0801F334       loc_801F334
 0000:0801F34A       loc_801F34A
 0000:0801F36E       loc_801F36E
 0000:0801F390       loc_801F390
 0000:0801F392       loc_801F392
 0000:0801F3A8       loc_801F3A8
 0000:0801F3BE       loc_801F3BE
 0000:0801F3D4       loc_801F3D4
 0000:0801F3D6       loc_801F3D6
 0000:0801F3EC       loc_801F3EC
 0000:0801F402       loc_801F402
 0000:0801F424       loc_801F424
 0000:0801F43A       loc_801F43A
 0000:0801F450       loc_801F450
 0000:0801F46A       loc_801F46A
 0000:0801F484       loc_801F484
 0000:0801F49E       locret_801F49E
 0000:0801F4A0       off_801F4A0
 0000:0801F4A4       off_801F4A4
 0000:0801F4A8       off_801F4A8
 0000:0801F4AC       off_801F4AC
 0000:0801F4B0       off_801F4B0
 0000:0801F4B4       off_801F4B4
 0000:0801F4B8       off_801F4B8
 0000:0801F4BC       off_801F4BC
 0000:0801F4C0       sub_801F4C0
 0000:0801F4F2       loc_801F4F2
 0000:0801F4FA       loc_801F4FA
 0000:0801F634       loc_801F634
 0000:0801F650       locret_801F650
 0000:0801F654       off_801F654
 0000:0801F658       off_801F658
 0000:0801F65C       off_801F65C
 0000:0801F660       sub_801F660
 0000:0801F6C2       loc_801F6C2
 0000:0801F6CA       loc_801F6CA
 0000:0801F72E       loc_801F72E
 0000:0801F74C       locret_801F74C
 0000:0801F750       off_801F750
 0000:0801F754       off_801F754
 0000:0801F758       off_801F758
 0000:0801F75C       off_801F75C
 0000:0801F760       off_801F760
 0000:0801F764       off_801F764
 0000:0801F768       sub_801F768
 0000:0801F7A0       loc_801F7A0
 0000:0801F7AA       loc_801F7AA
 0000:0801F7EC       loc_801F7EC
 0000:0801F7F4       loc_801F7F4
 0000:0801F856       loc_801F856
 0000:0801F87C       loc_801F87C
 0000:0801F884       loc_801F884
 0000:0801F8E4       loc_801F8E4
 0000:0801F8E6       loc_801F8E6
 0000:0801F904       loc_801F904
 0000:0801F910       off_801F910
 0000:0801F914       sub_801F914
 0000:0801FA22       loc_801FA22
 0000:0801FA40       locret_801FA40
 0000:0801FA44       off_801FA44
 0000:0801FA48       off_801FA48
 0000:0801FA4C       off_801FA4C
 0000:0801FA50       sub_801FA50
 0000:0801FA88       loc_801FA88
 0000:0801FA92       loc_801FA92
 0000:0801FACA       loc_801FACA
 0000:0801FAD2       loc_801FAD2
 0000:0801FB40       loc_801FB40
 0000:0801FB5E       locret_801FB5E
 0000:0801FB60       sub_801FB60
 0000:0801FBC2       loc_801FBC2
 0000:0801FBCA       loc_801FBCA
 0000:0801FC38       loc_801FC38
 0000:0801FC56       locret_801FC56
 0000:0801FC58       sub_801FC58
 0000:0801FCC0       loc_801FCC0
 0000:0801FCDE       loc_801FCDE
 0000:0801FCEA       loc_801FCEA
 0000:0801FD04       loc_801FD04
 0000:0801FD08       locret_801FD08
 0000:0801FD0A       sub_801FD0A
 0000:0801FD9A       sub_801FD9A
 0000:0801FDF2       loc_801FDF2
 0000:0801FE1A       loc_801FE1A
 0000:0801FE4E       loc_801FE4E
 0000:0801FE6E       loc_801FE6E
 0000:0801FE9C       locret_801FE9C
 0000:0801FEA0       off_801FEA0
 0000:0801FEA4       sub_801FEA4
 0000:0801FF18       loc_801FF18
 0000:0801FF34       loc_801FF34
 0000:0801FF38       loc_801FF38
 0000:0801FF58       loc_801FF58
 0000:0801FF5C       locret_801FF5C
 0000:0801FF60       off_801FF60
 0000:0801FF64       off_801FF64
 0000:0801FF68       off_801FF68
 0000:0801FF6C       off_801FF6C
 0000:0801FF70       off_801FF70
 0000:0801FF74       off_801FF74
 0000:0801FF78       off_801FF78
 0000:0801FFC6       loc_801FFC6
 0000:0801FFDE       loc_801FFDE
 0000:08020000       dword_8020000
 0000:0802000A       word_802000A
 0000:080200DC       off_80200DC
 0000:080200E0       off_80200E0
 0000:080200E4       dword_80200E4
 0000:080200E8       off_80200E8
 0000:08020210       off_8020210
 0000:08020214       off_8020214
 0000:08020218       off_8020218
 0000:0802021C       dword_802021C
 0000:08020220       dword_8020220
 0000:080203D0       dword_80203D0
 0000:080203D4       dword_80203D4
 0000:080203D8       dword_80203D8
 0000:080203DC       dword_80203DC
 0000:080204A8       off_80204A8
 0000:080204AC       dword_80204AC
 0000:08020558       off_8020558
 0000:080206B0       dword_80206B0
 0000:080206B4       dword_80206B4
 0000:080206B8       off_80206B8
 0000:080207F4       off_80207F4
 0000:080207F8       off_80207F8
 0000:080207FC       off_80207FC
 0000:080208BC       off_80208BC
 0000:080208C0       dword_80208C0
 0000:080208C4       dword_80208C4
 0000:080208C8       dword_80208C8
 0000:08020A14       dword_8020A14
 0000:08020AE0       off_8020AE0
 0000:08026256       word_8026256
 0000:08026A86       word_8026A86
 0000:08026C38       dword_8026C38
 0000:08026C44       dword_8026C44
 0000:0802726C       dword_802726C
 0000:080272A2       word_80272A2
 0000:080272D8       dword_80272D8
 0000:080278D0       dword_80278D0
 0000:080278EE       word_80278EE
 0000:08027952       word_8027952
 0000:08028228       dword_8028228
 0000:08028AD8       dword_8028AD8
 0000:0802C570       dword_802C570
 0000:0802C79A       word_802C79A
 0000:0802CD28       dword_802CD28
 0000:0802CD3C       dword_802CD3C
 0000:0802CDFC       dword_802CDFC
 0000:0802E76E       word_802E76E
 0000:0802E780       dword_802E780
 0000:0802E9F0       dword_802E9F0
 0000:0802EA88       dword_802EA88
 0000:0802EAB4       dword_802EAB4
 0000:0802EB6A       word_802EB6A
 0000:0802EB8A       word_802EB8A
 0000:0802F578       dword_802F578
 0000:0802F6E8       dword_802F6E8
 0000:0802F7F0       dword_802F7F0
 0000:08030630       dword_8030630
 0000:0803084E       word_803084E
 0000:0803090A       word_803090A
 0000:08030A7C       dword_8030A7C
 0000:08030D8E       word_8030D8E
 0000:08030DAE       word_8030DAE
 0000:08030DCE       word_8030DCE
 0000:08030DEE       word_8030DEE
 0000:08030E00       dword_8030E00
 0000:08030E12       word_8030E12
 0000:08030E24       dword_8030E24
 0000:08030E36       word_8030E36
 0000:08031304       dword_8031304
 0000:0803185C       dword_803185C
 0000:080318A4       dword_80318A4
 0000:08031CC4       dword_8031CC4
 0000:08031F90       dword_8031F90
 0000:08032016       word_8032016
 0000:080320AC       dword_80320AC
 0000:080322D4       dword_80322D4
 0000:08035674       dword_8035674
 0000:08035758       dword_8035758
 0000:08037176       word_8037176
 0000:080371A4       dword_80371A4
 0000:080371D2       word_80371D2
 0000:08037216       word_8037216
 0000:080372B6       word_80372B6
 0000:08037304       dword_8037304
 0000:0803B1C8       dword_803B1C8
 0000:0803B2C6       word_803B2C6
 0000:0803B2DC       dword_803B2DC
 0000:0803B2F4       dword_803B2F4
 0000:0803B346       word_803B346
 0000:0803B36C       dword_803B36C
 0000:0803B3AC       dword_803B3AC
 0000:0803B3B8       dword_803B3B8
 0000:0803B66C       dword_803B66C
 0000:0803B8FC       dword_803B8FC
 0000:0803B96E       word_803B96E
 0000:0803BA02       word_803BA02
 0000:0803BD00       dword_803BD00
 0000:0803BDE6       word_803BDE6
 0000:0803BE38       dword_803BE38
 0000:0803BF1A       word_803BF1A
 0000:0803C180       dword_803C180
 0000:0803C24E       word_803C24E
 0000:0803D242       word_803D242
 0000:0803EAF0       dword_803EAF0
 0000:0803FE20       dword_803FE20
 0000:08040000       dword_8040000
 0000:08040138       dword_8040138
 0000:080447C0       dword_80447C0
 0000:08044814       dword_8044814
 0000:08044BF0       dword_8044BF0
 0000:08045130       dword_8045130
 0000:080451E8       dword_80451E8
 0000:08045268       dword_8045268
 0000:08045330       dword_8045330
 0000:080454E8       dword_80454E8
 0000:080495CC       dword_80495CC
 0000:0804A76E       word_804A76E
 0000:0804AFA6       word_804AFA6
 0000:0804B1AC       dword_804B1AC
 0000:08060000       dword_8060000
 0000:08080000       dword_8080000
 0000:080A0000       dword_80A0000
 0000:080C0000       dword_80C0000
 0000:080E0000       dword_80E0000
 0000:080F87F8       dword_80F87F8
 0000:080F8818       dword_80F8818
 0000:080F8B70       dword_80F8B70
 0000:080F93A0       dword_80F93A0
 0000:080F9688       dword_80F9688
 0001:10000000       unk_10000000
 0001:100037E0       byte_100037E0
 0001:10006B98       byte_10006B98
 0001:1FFF7920       dword_1FFF7920
 0001:1FFF7924       dword_1FFF7924
 0001:1FFF7928       dword_1FFF7928
 0001:1FFF792C       dword_1FFF792C
 0001:1FFF7A10       dword_1FFF7A10
 0001:1FFF7A14       dword_1FFF7A14
 0001:1FFF7A18       dword_1FFF7A18
 0000:20000000       unk_20000000
 0000:2000002C       veda_ctrl_ops_ptr
 0000:20000030       dword_20000030
 0000:2000004C       dword_2000004C
 0000:20000060       dword_20000060
 0000:20000064       veda_service_object_addr
 0000:20000068       dword_20000068
 0000:20000070       veda_ctrl_ops_slots_08_0C
 0000:20000074       dword_20000074
 0000:20000078       veda_ctrl_process_pending_cb
 0000:20000098       dword_20000098
 0000:200000B0       dword_200000B0
 0000:200000B4       dword_200000B4
 0000:200000BC       dword_200000BC
 0000:200000C4       dword_200000C4
 0000:200000D8       dword_200000D8
 0000:200000DC       dword_200000DC
 0000:200000E0       dword_200000E0
 0000:200000FC       dword_200000FC
 0000:20000100       dword_20000100
 0000:20000104       dword_20000104
 0000:20000114       dword_20000114
 0000:20000348       dword_20000348
 0000:20000468       dword_20000468
 0000:200004D0       dword_200004D0
 0000:200004D4       dword_200004D4
 0000:200004D8       dword_200004D8
 0000:20000500       dword_20000500
 0000:200005CC       dword_200005CC
 0000:200007DC       dword_200007DC
 0000:20000930       byte_20000930
 0000:200010AC       unk_200010AC
 0000:20001390       byte_20001390
 0000:20001391       byte_20001391
 0000:20001392       byte_20001392
 0000:20001393       byte_20001393
 0000:20001394       byte_20001394
 0000:20001395       byte_20001395
 0000:20001398       word_20001398
 0000:200014CC       unk_200014CC
 0000:200014DC       unk_200014DC
 0000:200014EC       dword_200014EC
 0000:20001929       byte_20001929
 0000:2000192D       byte_2000192D
 0000:2000192E       byte_2000192E
 0000:20001930       unk_20001930
 0000:20001F24       command_buffer
 0000:20001F25       cmd_type
 0000:20001F26       veda_cmd_len_words
 0000:20001F28       cmd_payload
 0000:20001F2C       payload_mode
 0000:20001F34       veda_cmd_workbuf_head
 0000:20001F38       dword_20001F38
 0000:20001F3C       byte_20001F3C
 0000:20001F3D       byte_20001F3D
 0000:20001F3E       byte_20001F3E
 0000:20001F3F       byte_20001F3F
 0000:20001F40       unk_20001F40
 0000:20001F44       dword_20001F44
 0000:20001F48       dword_20001F48
 0000:20001F4C       dword_20001F4C
 0000:20001F50       dword_20001F50
 0000:20001F54       dword_20001F54
 0000:20001F58       dword_20001F58
 0000:20001F5C       dword_20001F5C
 0000:20001F60       dword_20001F60
 0000:20001F64       dword_20001F64
 0000:20001F68       dword_20001F68
 0000:20002324       veda_service_staged_block256_a
 0000:20002424       veda_service_staged_block256_b
 0000:20002524       dword_20002524
 0000:20002624       byte_20002624
 0000:200026EC       byte_200026EC
 0000:2000273C       veda_service_staged_block64
 0000:2000277C       unk_2000277C
 0000:2000277D       unk_2000277D
 0000:2000277E       unk_2000277E
 0000:20002780       unk_20002780
 0000:20002782       unk_20002782
 0000:20002786       unk_20002786
 0000:20002787       unk_20002787
 0000:20002788       unk_20002788
 0000:2000278C       unk_2000278C
 0000:20002790       unk_20002790
 0000:20002794       unk_20002794
 0000:20002796       unk_20002796
 0000:200027BC       veda_hw_token16
 0000:200027C0       unk_200027C0
 0000:200027C4       unk_200027C4
 0000:200027C8       unk_200027C8
 0000:200027CC       unk_200027CC
 0000:200027CD       unk_200027CD
 0000:200027CE       unk_200027CE
 0000:200027D8       byte_200027D8
 0000:200027E0       service_reply
 0000:200027E1       veda_service_reply_arg0
 0000:200027E2       veda_service_reply_arg1
 0000:200027E3       veda_service_reply_arg2
 0000:200027E4       veda_service_state_echo
 0000:200027E5       unk_200027E5
 0000:200027E8       unk_200027E8
 0000:200027EC       unk_200027EC
 0000:200027F0       unk_200027F0
 0000:200027F4       dword_200027F4
 0000:200027F8       dword_200027F8
 0000:200027FC       byte_200027FC
 0000:200027FE       unk_200027FE
 0000:200027FF       unk_200027FF
 0000:20002800       unk_20002800
 0000:20002804       veda_service_close_after_rx_flag
 0000:20002808       veda_service_pending_transfer_qword
 0000:2000280C       word_2000280C
 0000:20002810       dword_20002810
 0000:20002814       dword_20002814
 0000:20002818       unk_20002818
 0000:2000281C       dword_2000281C
 0000:20002820       dword_20002820
 0000:20002824       unk_20002824
 0000:20002828       unk_20002828
 0000:2000282C       unk_2000282C
 0000:20002830       veda_service_reply_selector
 0000:20002831       veda_service_reply_item
 0000:20002832       unk_20002832
 0000:20002833       unk_20002833
 0000:20002834       unk_20002834
 0000:20002835       unk_20002835
 0000:20002836       unk_20002836
 0000:20002837       unk_20002837
 0000:20002838       unk_20002838
 0000:20002839       unk_20002839
 0000:2000283A       unk_2000283A
 0000:2000283B       veda_service_state
 0000:2000283C       unk_2000283C
 0000:2000283D       unk_2000283D
 0000:2000283E       flash_read_mode
 0000:2000283F       unk_2000283F
 0000:20002840       byte_20002840
 0000:20002950       unk_20002950
 0000:20003F80       session_key32
 0000:20003FA0       veda_runtime_blob_entry
 0000:20003FA4       veda_case8_ctx_word0
 0000:20003FA8       veda_case8_ctx_word1
 0000:20003FAC       veda_case8_ctx_word2
 0000:20003FB0       veda_case8_ctx_word3
 0000:20003FB4       session_key_valid
 0000:20003FB5       auth_ok
 0000:20003FB6       byte_20003FB6
 0000:20003FB8       unk_20003FB8
 0000:20003FBC       unk_20003FBC
 0000:20003FFF       unk_20003FFF
 0000:20004000       veda_runtime_blob_buf
 0000:200165B4       unk_200165B4
 0000:2001A5B4       byte_2001A5B4
 0000:2001BF80       dword_2001BF80
 0000:2001C5D0       byte_2001C5D0
 0000:2001C5D3       byte_2001C5D3
 0000:2001C5D4       unk_2001C5D4
 0000:2001C616       unk_2001C616
 0000:2001C858       unk_2001C858
 0000:2001D258       byte_2001D258
 0000:2001D80C       byte_2001D80C
 0000:2001D80D       byte_2001D80D
 0000:2001D80E       byte_2001D80E
 0000:2001D80F       byte_2001D80F
 0000:2001D810       dword_2001D810
 0000:2001D817       byte_2001D817
 0000:2001D821       byte_2001D821
 0000:2001D823       byte_2001D823
 0000:2001D828       byte_2001D828
 0000:2001D829       byte_2001D829
 0000:2001D82A       byte_2001D82A
 0000:2001D82B       byte_2001D82B
 0000:2001D837       byte_2001D837
 0000:2001D83C       unk_2001D83C
 0000:2001D85E       byte_2001D85E
 0000:2001D860       dword_2001D860
 0000:2001D864       dword_2001D864
 0000:2001D868       dword_2001D868
 0000:2001D86C       byte_2001D86C
 0000:2001D86E       byte_2001D86E
 0000:2001D934       word_2001D934
 0000:2001D936       word_2001D936
 0000:2001D994       word_2001D994
 0000:2001DA94       word_2001DA94
 0000:2001DD1C       byte_2001DD1C
 0000:2001DDDC       unk_2001DDDC
 0000:2001DDF0       word_2001DDF0
 0000:2001DDF2       word_2001DDF2
 0000:2001DDF4       word_2001DDF4
 0000:2001DDF6       word_2001DDF6
 0000:2001DDF9       byte_2001DDF9
 0000:2001DE14       byte_2001DE14
 0000:2001DE5C       byte_2001DE5C
 0000:2001DE6C       dword_2001DE6C
 0000:2001DE70       dword_2001DE70
 0000:2001DE7C       unk_2001DE7C
 0000:2001DE9C       byte_2001DE9C
 0000:2001DEAC       dword_2001DEAC
 0000:2001DEB0       dword_2001DEB0
 0000:2001DEBC       unk_2001DEBC
 0000:2001DEDC       byte_2001DEDC
 0000:2001DEDD       byte_2001DEDD
 0000:2001DEDF       byte_2001DEDF
 0000:2001DEE0       byte_2001DEE0
 0000:2001DEE2       word_2001DEE2
 0000:2001DEE4       byte_2001DEE4
 0000:2001DEE7       byte_2001DEE7
 0000:2001DEE8       byte_2001DEE8
 0000:2001DEE9       byte_2001DEE9
 0000:2001DEEC       dword_2001DEEC
 0000:2001DEF0       dword_2001DEF0
 0000:2001DEF4       word_2001DEF4
 0000:2001DEF6       word_2001DEF6
 0000:2001DEFC       word_2001DEFC
 0000:2001DF1C       unk_2001DF1C
 0000:2001DF2C       dword_2001DF2C
 0000:2001DF30       dword_2001DF30
 0000:2001DF3C       unk_2001DF3C
 0000:2001DF5C       unk_2001DF5C
 0000:2001DF6C       dword_2001DF6C
 0000:2001DF70       dword_2001DF70
 0000:2001DF7C       unk_2001DF7C
 0000:2001DFDC       dword_2001DFDC
 0000:2001DFE0       dword_2001DFE0
 0000:2001DFE4       unk_2001DFE4
 0000:2001DFE8       unk_2001DFE8
 0000:2001E008       dword_2001E008
 0000:2001E00C       dword_2001E00C
 0000:2001E014       dword_2001E014
 0000:2001E018       byte_2001E018
 0000:2001E019       byte_2001E019
 0000:2001E13C       word_2001E13C
 0000:2001E13E       word_2001E13E
 0000:2001E140       word_2001E140
 0000:2001E142       word_2001E142
 0000:2001E144       word_2001E144
 0000:2001E146       word_2001E146
 0000:2001E148       word_2001E148
 0000:2001E14A       word_2001E14A
 0000:2001E14C       word_2001E14C
 0000:2001E14E       word_2001E14E
 0000:2001E150       word_2001E150
 0000:2001E152       word_2001E152
 0000:2001E154       word_2001E154
 0000:2001E156       word_2001E156
 0000:2001E15C       word_2001E15C
 0000:2001E15E       word_2001E15E
 0000:2001E162       word_2001E162
 0000:2001E164       word_2001E164
 0000:2001E16C       word_2001E16C
 0000:2001E29C       byte_2001E29C
 0000:2001E2A0       word_2001E2A0
 0000:2001E2C0       unk_2001E2C0
 0000:2001E2E4       unk_2001E2E4
 0000:2001E308       unk_2001E308
 0000:2001E36C       word_2001E36C
 0000:2001E36E       word_2001E36E
 0000:2001E370       word_2001E370
 0000:2001E374       word_2001E374
 0000:2001E378       word_2001E378
 0000:2001E37C       word_2001E37C
 0000:2001E380       word_2001E380
 0000:2001E384       word_2001E384
 0000:2001E388       word_2001E388
 0000:2001E38C       byte_2001E38C
 0000:2001E3AC       word_2001E3AC
 0000:2001E3CC       dword_2001E3CC
 0000:2001E3D4       dword_2001E3D4
 0000:2001E3DA       unk_2001E3DA
 0000:2001E4F0       word_2001E4F0
 0000:2001E4F4       word_2001E4F4
 0000:2001E4F8       word_2001E4F8
 0000:2001E4FC       word_2001E4FC
 0000:2001E4FE       word_2001E4FE
 0000:2001E500       word_2001E500
 0000:2001E502       word_2001E502
 0000:2001E504       unk_2001E504
 0000:2001E507       byte_2001E507
 0000:2001E512       word_2001E512
 0000:2001E514       word_2001E514
 0000:2001E518       unk_2001E518
 0000:2001E519       byte_2001E519
 0000:2001E51A       byte_2001E51A
 0000:2001E51B       byte_2001E51B
 0000:2001E51D       byte_2001E51D
 0000:2001E51E       byte_2001E51E
 0000:2001E520       word_2001E520
 0000:2001E522       byte_2001E522
 0000:2001E523       byte_2001E523
 0000:2001E524       word_2001E524
 0000:2001E620       word_2001E620
 0000:2001E622       word_2001E622
 0000:2001E624       word_2001E624
 0000:2001E626       word_2001E626
 0000:2001E628       word_2001E628
 0000:2001E62A       word_2001E62A
 0000:2001E62C       word_2001E62C
 0000:2001E640       unk_2001E640
 0000:2001E643       byte_2001E643
 0000:2001E644       byte_2001E644
 0000:2001E646       byte_2001E646
 0000:2001E649       byte_2001E649
 0000:2001E64A       byte_2001E64A
 0000:2001E680       byte_2001E680
 0000:2001E6F0       word_2001E6F0
 0000:2001E820       byte_2001E820
 0000:2001E821       byte_2001E821
 0000:2001E822       byte_2001E822
 0000:2001E823       byte_2001E823
 0000:2001E824       byte_2001E824
 0000:2001E825       byte_2001E825
 0000:2001E826       byte_2001E826
 0000:2001E827       byte_2001E827
 0000:2001E86C       dword_2001E86C
 0000:2001E874       dword_2001E874
 0000:2001E8B4       dword_2001E8B4
 0000:2001E8F0       dword_2001E8F0
 0000:2001E8F4       dword_2001E8F4
 0000:2001E908       dword_2001E908
 0000:2001E914       dword_2001E914
 0000:2001E920       byte_2001E920
 0000:2001E921       byte_2001E921
 0000:2001E922       byte_2001E922
 0000:2001E924       unk_2001E924
 0000:2001E925       byte_2001E925
 0000:2001E926       byte_2001E926
 0000:2001E927       byte_2001E927
 0000:2001E928       dword_2001E928
 0000:2001E92C       dword_2001E92C
 0000:2001E938       dword_2001E938
 0000:2001E978       dword_2001E978
 0000:2001E988       byte_2001E988
 0000:2001E989       byte_2001E989
 0000:2001E98A       byte_2001E98A
 0000:2001E98B       byte_2001E98B
 0000:2001E9C4       dword_2001E9C4
 0000:2001E9E4       unk_2001E9E4
 0000:2001E9E5       byte_2001E9E5
 0000:2001E9E7       byte_2001E9E7
 0000:2001E9E8       byte_2001E9E8
 0000:2001E9F4       byte_2001E9F4
 0000:2001E9F5       byte_2001E9F5
 0000:2001E9F8       byte_2001E9F8
 0000:2001E9F9       byte_2001E9F9
 0000:2001E9FC       unk_2001E9FC
 0000:2001E9FD       byte_2001E9FD
 0000:2001EA00       unk_2001EA00
 0000:2001EA01       byte_2001EA01
 0000:2001EA10       byte_2001EA10
 0000:2001EA11       byte_2001EA11
 0000:2001EA13       byte_2001EA13
 0000:2001EA60       dword_2001EA60
 0000:2001EA90       dword_2001EA90
 0000:2001EB32       word_2001EB32
 0000:2001EB3C       word_2001EB3C
 0000:2001EB4E       word_2001EB4E
 0000:2001EB50       word_2001EB50
 0000:2001EB52       word_2001EB52
 0000:2001EB54       word_2001EB54
 0000:2001EB56       word_2001EB56
 0000:2001EB5A       word_2001EB5A
 0000:2001EB5C       word_2001EB5C
 0000:2001EB5E       word_2001EB5E
 0000:2001EB60       word_2001EB60
 0000:2001EB62       word_2001EB62
 0000:2001EB64       word_2001EB64
 0000:2001EB66       word_2001EB66
 0000:2001EB68       word_2001EB68
 0000:2001EB6A       word_2001EB6A
 0000:2001EB6E       word_2001EB6E
 0000:2001EB70       word_2001EB70
 0000:2001EB84       word_2001EB84
 0000:2001EBEC       word_2001EBEC
 0000:2001EC23       byte_2001EC23
 0000:2001EC43       byte_2001EC43
 0000:2001EC4A       byte_2001EC4A
 0000:2001EC4B       byte_2001EC4B
 0000:2001EC52       byte_2001EC52
 0000:2001EC60       byte_2001EC60
 0000:2001EC61       byte_2001EC61
 0000:2001EC63       byte_2001EC63
 0000:2001EC64       byte_2001EC64
 0000:2001EC65       byte_2001EC65
 0000:2001EC66       byte_2001EC66
 0000:2001EC67       byte_2001EC67
 0000:2001EC68       byte_2001EC68
 0000:2001EC69       byte_2001EC69
 0000:2001EC6A       byte_2001EC6A
 0000:2001EC6B       byte_2001EC6B
 0000:2001EC71       byte_2001EC71
 0000:2001EC72       byte_2001EC72
 0000:2001EC89       byte_2001EC89
 0000:2001EC8B       byte_2001EC8B
 0000:2001EC8C       byte_2001EC8C
 0000:2001EC8E       byte_2001EC8E
 0000:2001EC8F       byte_2001EC8F
 0000:2001EC90       byte_2001EC90
 0000:2001EC91       byte_2001EC91
 0000:2001EC92       byte_2001EC92
 0000:2001EC93       byte_2001EC93
 0000:2001EC94       byte_2001EC94
 0000:2001EC95       byte_2001EC95
 0000:2001EC96       byte_2001EC96
 0000:2001EC9A       byte_2001EC9A
 0000:2001EC9B       byte_2001EC9B
 0000:2001EC9C       byte_2001EC9C
 0000:2001EC9D       byte_2001EC9D
 0000:2001EC9E       byte_2001EC9E
 0000:2001EC9F       byte_2001EC9F
 0000:2001ECA0       byte_2001ECA0
 0000:2001ECA1       byte_2001ECA1
 0000:2001ECA2       byte_2001ECA2
 0000:2001ECA3       byte_2001ECA3
 0000:2001ECA4       byte_2001ECA4
 0000:2001ECA5       byte_2001ECA5
 0000:2001ECA6       byte_2001ECA6
 0000:2001ECA7       byte_2001ECA7
 0000:2001ECA9       byte_2001ECA9
 0000:2001ECAA       byte_2001ECAA
 0000:2001ECAB       byte_2001ECAB
 0000:2001ECAC       byte_2001ECAC
 0000:2001ECC0       byte_2001ECC0
 0000:2001ECC1       byte_2001ECC1
 0000:2001ECC2       byte_2001ECC2
 0000:2001ECC3       byte_2001ECC3
 0000:2001ECC4       byte_2001ECC4
 0000:2001ECC5       byte_2001ECC5
 0000:2001ECC6       byte_2001ECC6
 0000:2001ECC7       byte_2001ECC7
 0000:2001ECC8       byte_2001ECC8
 0000:2001ECC9       byte_2001ECC9
 0000:2001ECCA       byte_2001ECCA
 0000:2001ECD8       byte_2001ECD8
 0000:2001ECF0       byte_2001ECF0
 0000:2001ECF8       byte_2001ECF8
 0000:2001ED07       byte_2001ED07
 0000:2001ED08       byte_2001ED08
 0000:2001ED18       byte_2001ED18
 0000:2001ED19       byte_2001ED19
 0000:2001ED47       byte_2001ED47
 0000:2001ED50       byte_2001ED50
 0000:2001ED57       byte_2001ED57
 0000:2001ED58       byte_2001ED58
 0000:2002FFFF       unk_2002FFFF
 0000:40007000       unk_40007000
 0000:40013000       word_40013000
 0000:40020000       dword_40020000
 0000:40020400       dword_40020400
 0000:40020800       dword_40020800
 0000:40020C00       dword_40020C00
 0000:40021000       dword_40021000
 0000:40023000       unk_40023000
 0000:40023008       unk_40023008
 0000:40023800       unk_40023800
 0000:40023804       unk_40023804
 0000:40023808       dword_40023808
 0000:4002380C       unk_4002380C
 0000:40023830       unk_40023830
 0000:40023834       dword_40023834
 0000:40023840       unk_40023840
 0000:40023844       unk_40023844
 0000:40023C00       dword_40023C00
 0000:40023C04       unk_40023C04
 0000:40023C08       dword_40023C08
 0000:40023C0C       dword_40023C0C
 0000:40023C10       unk_40023C10
 0000:40023C14       dword_40023C14
 0000:40040000       unk_40040000
 0000:50000000       unk_50000000
 0000:50060800       dword_50060800
 0000:50060804       dword_50060804
 0000:50060808       dword_50060808
 0000:E000E100       dword_E000E100
 0000:E000E180       dword_E000E180
 0000:E000E400       byte_E000E400
 0000:E000ED04       dword_E000ED04
 0000:E000ED08       unk_E000ED08
 0000:E000ED0C       word_E000ED0C
 0000:E000ED10       unk_E000ED10
 0000:E000ED22       unk_E000ED22
 0000:E000ED88       unk_E000ED88
 0000:E0042000       DBGMCU_IDCODE
 0000:E0042004       DBGMCU_CFG
 0000:E0042008       DBGMCU_APB1F
 0000:E004200C       DBGMCU_APB2F
